
./src/libfreeswitch_la-switch_core_media.o:     file format elf32-littlearm


Disassembly of section .text:

00000000 <greedy_sort>:
       0:	e92d4ff0 	push	{r4, r5, r6, r7, r8, r9, sl, fp, lr}
       4:	e24ddf7b 	sub	sp, sp, #492	; 0x1ec
       8:	e1a08001 	mov	r8, r1
       c:	e58d2000 	str	r2, [sp]
      10:	e58d0004 	str	r0, [sp, #4]
      14:	e3a02e1e 	mov	r2, #480	; 0x1e0
      18:	e28d0008 	add	r0, sp, #8
      1c:	e3a01000 	mov	r1, #0
      20:	e1a09003 	mov	r9, r3
      24:	ebfffffe 	bl	0 <memset>
      28:	e59d2000 	ldr	r2, [sp]
      2c:	e3520000 	cmp	r2, #0
      30:	da000009 	ble	5c <greedy_sort+0x5c>
      34:	e1a05202 	lsl	r5, r2, #4
      38:	e3a0c000 	mov	ip, #0
      3c:	e088300c 	add	r3, r8, ip
      40:	e28d2008 	add	r2, sp, #8
      44:	e082400c 	add	r4, r2, ip
      48:	e893000f 	ldm	r3, {r0, r1, r2, r3}
      4c:	e28cc010 	add	ip, ip, #16
      50:	e15c0005 	cmp	ip, r5
      54:	e884000f 	stm	r4, {r0, r1, r2, r3}
      58:	1afffff7 	bne	3c <greedy_sort+0x3c>
      5c:	e59d2004 	ldr	r2, [sp, #4]
      60:	e59fb094 	ldr	fp, [pc, #148]	; fc <greedy_sort+0xfc>
      64:	e792300b 	ldr	r3, [r2, fp]
      68:	e59d2210 	ldr	r2, [sp, #528]	; 0x210
      6c:	e5933080 	ldr	r3, [r3, #128]	; 0x80
      70:	e3520000 	cmp	r2, #0
      74:	c3530000 	cmpgt	r3, #0
      78:	da00001d 	ble	f4 <greedy_sort+0xf4>
      7c:	e59d3000 	ldr	r3, [sp]
      80:	e3a0a000 	mov	sl, #0
      84:	e1a0700a 	mov	r7, sl
      88:	e1a05203 	lsl	r5, r3, #4
      8c:	e1a06005 	mov	r6, r5
      90:	e59d2000 	ldr	r2, [sp]
      94:	e4994004 	ldr	r4, [r9], #4
      98:	e3520000 	cmp	r2, #0
      9c:	da00000c 	ble	d4 <greedy_sort+0xd4>
      a0:	e3a0c000 	mov	ip, #0
      a4:	e1a05004 	mov	r5, r4
      a8:	e28d2008 	add	r2, sp, #8
      ac:	e792300c 	ldr	r3, [r2, ip]
      b0:	e1530005 	cmp	r3, r5
      b4:	0082300c 	addeq	r3, r2, ip
      b8:	00884207 	addeq	r4, r8, r7, lsl #4
      bc:	0893000f 	ldmeq	r3, {r0, r1, r2, r3}
      c0:	e28cc010 	add	ip, ip, #16
      c4:	02877001 	addeq	r7, r7, #1
      c8:	0884000f 	stmeq	r4, {r0, r1, r2, r3}
      cc:	e15c0006 	cmp	ip, r6
      d0:	1afffff4 	bne	a8 <greedy_sort+0xa8>
      d4:	e59d2004 	ldr	r2, [sp, #4]
      d8:	e28aa001 	add	sl, sl, #1
      dc:	e792300b 	ldr	r3, [r2, fp]
      e0:	e59d2210 	ldr	r2, [sp, #528]	; 0x210
      e4:	e5933080 	ldr	r3, [r3, #128]	; 0x80
      e8:	e152000a 	cmp	r2, sl
      ec:	c153000a 	cmpgt	r3, sl
      f0:	caffffe6 	bgt	90 <greedy_sort+0x90>
      f4:	e28ddf7b 	add	sp, sp, #492	; 0x1ec
      f8:	e8bd8ff0 	pop	{r4, r5, r6, r7, r8, r9, sl, fp, pc}
      fc:	00005cf8 	.word	0x00005cf8

00000100 <dtls_ok>:
     100:	e5900018 	ldr	r0, [r0, #24]
     104:	e3a0106f 	mov	r1, #111	; 0x6f
     108:	eafffffe 	b	0 <switch_channel_test_flag>

0000010c <switch_core_media_find_zrtp_hash>:
     10c:	e92d4ff0 	push	{r4, r5, r6, r7, r8, r9, sl, fp, lr}
     110:	e24dd024 	sub	sp, sp, #36	; 0x24
     114:	e1a04001 	mov	r4, r1
     118:	e58d0018 	str	r0, [sp, #24]
     11c:	ebfffffe 	bl	0 <switch_core_session_get_channel>
     120:	e59f3260 	ldr	r3, [pc, #608]	; 388 <switch_core_media_find_zrtp_hash+0x27c>
     124:	e59d2018 	ldr	r2, [sp, #24]
     128:	e7923003 	ldr	r3, [r2, r3]
     12c:	e3530000 	cmp	r3, #0
     130:	e58d3014 	str	r3, [sp, #20]
     134:	e1a09000 	mov	r9, r0
     138:	0a000049 	beq	264 <switch_core_media_find_zrtp_hash+0x158>
     13c:	ebfffffe 	bl	0 <switch_channel_get_session>
     140:	e3a0c065 	mov	ip, #101	; 0x65
     144:	e58dc004 	str	ip, [sp, #4]
     148:	e59f123c 	ldr	r1, [pc, #572]	; 38c <switch_core_media_find_zrtp_hash+0x280>
     14c:	e59f223c 	ldr	r2, [pc, #572]	; 390 <switch_core_media_find_zrtp_hash+0x284>
     150:	e59fc23c 	ldr	ip, [pc, #572]	; 394 <switch_core_media_find_zrtp_hash+0x288>
     154:	e08f1001 	add	r1, pc, r1
     158:	e08fc00c 	add	ip, pc, ip
     15c:	e08f2002 	add	r2, pc, r2
     160:	e59f3230 	ldr	r3, [pc, #560]	; 398 <switch_core_media_find_zrtp_hash+0x28c>
     164:	e58dc008 	str	ip, [sp, #8]
     168:	e58d0000 	str	r0, [sp]
     16c:	e3a00003 	mov	r0, #3
     170:	ebfffffe 	bl	0 <switch_log_printf>
     174:	e594503c 	ldr	r5, [r4, #60]	; 0x3c
     178:	e3550000 	cmp	r5, #0
     17c:	0a000038 	beq	264 <switch_core_media_find_zrtp_hash+0x158>
     180:	e59f3214 	ldr	r3, [pc, #532]	; 39c <switch_core_media_find_zrtp_hash+0x290>
     184:	e59fa214 	ldr	sl, [pc, #532]	; 3a0 <switch_core_media_find_zrtp_hash+0x294>
     188:	e3a08000 	mov	r8, #0
     18c:	e08f3003 	add	r3, pc, r3
     190:	e08fa00a 	add	sl, pc, sl
     194:	e58d301c 	str	r3, [sp, #28]
     198:	e1a07008 	mov	r7, r8
     19c:	ea000014 	b	1f4 <switch_core_media_find_zrtp_hash+0xe8>
     1a0:	e1a0100a 	mov	r1, sl
     1a4:	ebfffffe 	bl	0 <strcasecmp>
     1a8:	e3500000 	cmp	r0, #0
     1ac:	1a000026 	bne	24c <switch_core_media_find_zrtp_hash+0x140>
     1b0:	e594300c 	ldr	r3, [r4, #12]
     1b4:	e3530000 	cmp	r3, #0
     1b8:	0a000023 	beq	24c <switch_core_media_find_zrtp_hash+0x140>
     1bc:	e35b0000 	cmp	fp, #0
     1c0:	1a000029 	bne	26c <switch_core_media_find_zrtp_hash+0x160>
     1c4:	e3560003 	cmp	r6, #3
     1c8:	0a00004b 	beq	2fc <switch_core_media_find_zrtp_hash+0x1f0>
     1cc:	e1a00009 	mov	r0, r9
     1d0:	e3a0104b 	mov	r1, #75	; 0x4b
     1d4:	e3a02001 	mov	r2, #1
     1d8:	ebfffffe 	bl	0 <switch_channel_set_flag_value>
     1dc:	e5955004 	ldr	r5, [r5, #4]
     1e0:	e3550000 	cmp	r5, #0
     1e4:	0a00001e 	beq	264 <switch_core_media_find_zrtp_hash+0x158>
     1e8:	e3580000 	cmp	r8, #0
     1ec:	13570000 	cmpne	r7, #0
     1f0:	1a00001b 	bne	264 <switch_core_media_find_zrtp_hash+0x158>
     1f4:	e5953014 	ldr	r3, [r5, #20]
     1f8:	e3530000 	cmp	r3, #0
     1fc:	0afffff6 	beq	1dc <switch_core_media_find_zrtp_hash+0xd0>
     200:	e595600c 	ldr	r6, [r5, #12]
     204:	e2463002 	sub	r3, r6, #2
     208:	e273b000 	rsbs	fp, r3, #0
     20c:	e0abb003 	adc	fp, fp, r3
     210:	e3570000 	cmp	r7, #0
     214:	03560002 	cmpeq	r6, #2
     218:	0a000002 	beq	228 <switch_core_media_find_zrtp_hash+0x11c>
     21c:	e3580000 	cmp	r8, #0
     220:	03560003 	cmpeq	r6, #3
     224:	1affffec 	bne	1dc <switch_core_media_find_zrtp_hash+0xd0>
     228:	e595403c 	ldr	r4, [r5, #60]	; 0x3c
     22c:	e3540000 	cmp	r4, #0
     230:	0affffe9 	beq	1dc <switch_core_media_find_zrtp_hash+0xd0>
     234:	e5940008 	ldr	r0, [r4, #8]
     238:	e3500000 	cmp	r0, #0
     23c:	0a000002 	beq	24c <switch_core_media_find_zrtp_hash+0x140>
     240:	e5d03000 	ldrb	r3, [r0]
     244:	e3530000 	cmp	r3, #0
     248:	1affffd4 	bne	1a0 <switch_core_media_find_zrtp_hash+0x94>
     24c:	e5944004 	ldr	r4, [r4, #4]
     250:	e3540000 	cmp	r4, #0
     254:	1afffff6 	bne	234 <switch_core_media_find_zrtp_hash+0x128>
     258:	e5955004 	ldr	r5, [r5, #4]
     25c:	e3550000 	cmp	r5, #0
     260:	1affffe0 	bne	1e8 <switch_core_media_find_zrtp_hash+0xdc>
     264:	e28dd024 	add	sp, sp, #36	; 0x24
     268:	e8bd8ff0 	pop	{r4, r5, r6, r7, r8, r9, sl, fp, pc}
     26c:	e1a00009 	mov	r0, r9
     270:	ebfffffe 	bl	0 <switch_channel_get_session>
     274:	e3a03007 	mov	r3, #7
     278:	e58d3004 	str	r3, [sp, #4]
     27c:	e59f3120 	ldr	r3, [pc, #288]	; 3a4 <switch_core_media_find_zrtp_hash+0x298>
     280:	e59f6120 	ldr	r6, [pc, #288]	; 3a8 <switch_core_media_find_zrtp_hash+0x29c>
     284:	e59fb120 	ldr	fp, [pc, #288]	; 3ac <switch_core_media_find_zrtp_hash+0x2a0>
     288:	e08f3003 	add	r3, pc, r3
     28c:	e58d3008 	str	r3, [sp, #8]
     290:	e08f6006 	add	r6, pc, r6
     294:	e08fb00b 	add	fp, pc, fp
     298:	e1a01006 	mov	r1, r6
     29c:	e1a0200b 	mov	r2, fp
     2a0:	e59f3108 	ldr	r3, [pc, #264]	; 3b0 <switch_core_media_find_zrtp_hash+0x2a4>
     2a4:	e2877001 	add	r7, r7, #1
     2a8:	e58d0000 	str	r0, [sp]
     2ac:	e594c00c 	ldr	ip, [r4, #12]
     2b0:	e3a00003 	mov	r0, #3
     2b4:	e58dc00c 	str	ip, [sp, #12]
     2b8:	ebfffffe 	bl	0 <switch_log_printf>
     2bc:	e59f10f0 	ldr	r1, [pc, #240]	; 3b4 <switch_core_media_find_zrtp_hash+0x2a8>
     2c0:	e594200c 	ldr	r2, [r4, #12]
     2c4:	e08f1001 	add	r1, pc, r1
     2c8:	e3a03001 	mov	r3, #1
     2cc:	e1a00009 	mov	r0, r9
     2d0:	ebfffffe 	bl	0 <switch_channel_set_variable_var_check>
     2d4:	e59fc0dc 	ldr	ip, [pc, #220]	; 3b8 <switch_core_media_find_zrtp_hash+0x2ac>
     2d8:	e594100c 	ldr	r1, [r4, #12]
     2dc:	e1a02006 	mov	r2, r6
     2e0:	e59d0018 	ldr	r0, [sp, #24]
     2e4:	e1a0300b 	mov	r3, fp
     2e8:	e58dc000 	str	ip, [sp]
     2ec:	ebfffffe 	bl	0 <switch_core_perform_session_strdup>
     2f0:	e59d2014 	ldr	r2, [sp, #20]
     2f4:	e582078c 	str	r0, [r2, #1932]	; 0x78c
     2f8:	eaffffb3 	b	1cc <switch_core_media_find_zrtp_hash+0xc0>
     2fc:	e1a00009 	mov	r0, r9
     300:	ebfffffe 	bl	0 <switch_channel_get_session>
     304:	e3a03007 	mov	r3, #7
     308:	e58d3004 	str	r3, [sp, #4]
     30c:	e59f30a8 	ldr	r3, [pc, #168]	; 3bc <switch_core_media_find_zrtp_hash+0x2b0>
     310:	e59fb0a8 	ldr	fp, [pc, #168]	; 3c0 <switch_core_media_find_zrtp_hash+0x2b4>
     314:	e08f3003 	add	r3, pc, r3
     318:	e58d3008 	str	r3, [sp, #8]
     31c:	e08fb00b 	add	fp, pc, fp
     320:	e59d101c 	ldr	r1, [sp, #28]
     324:	e1a0200b 	mov	r2, fp
     328:	e59f3094 	ldr	r3, [pc, #148]	; 3c4 <switch_core_media_find_zrtp_hash+0x2b8>
     32c:	e2888001 	add	r8, r8, #1
     330:	e58d0000 	str	r0, [sp]
     334:	e594c00c 	ldr	ip, [r4, #12]
     338:	e1a00006 	mov	r0, r6
     33c:	e58dc00c 	str	ip, [sp, #12]
     340:	ebfffffe 	bl	0 <switch_log_printf>
     344:	e59f107c 	ldr	r1, [pc, #124]	; 3c8 <switch_core_media_find_zrtp_hash+0x2bc>
     348:	e594200c 	ldr	r2, [r4, #12]
     34c:	e08f1001 	add	r1, pc, r1
     350:	e3a03001 	mov	r3, #1
     354:	e1a00009 	mov	r0, r9
     358:	ebfffffe 	bl	0 <switch_channel_set_variable_var_check>
     35c:	e594100c 	ldr	r1, [r4, #12]
     360:	e59d201c 	ldr	r2, [sp, #28]
     364:	e1a0300b 	mov	r3, fp
     368:	e3a0ce16 	mov	ip, #352	; 0x160
     36c:	e59d0018 	ldr	r0, [sp, #24]
     370:	e58dc000 	str	ip, [sp]
     374:	ebfffffe 	bl	0 <switch_core_perform_session_strdup>
     378:	e59d2014 	ldr	r2, [sp, #20]
     37c:	e2823b0d 	add	r3, r2, #13312	; 0x3400
     380:	e5830024 	str	r0, [r3, #36]	; 0x24
     384:	eaffff90 	b	1cc <switch_core_media_find_zrtp_hash+0xc0>
     388:	000056cc 	.word	0x000056cc
     38c:	00000230 	.word	0x00000230
     390:	0000022c 	.word	0x0000022c
     394:	00000234 	.word	0x00000234
     398:	0000014e 	.word	0x0000014e
     39c:	00000208 	.word	0x00000208
     3a0:	00000208 	.word	0x00000208
     3a4:	00000114 	.word	0x00000114
     3a8:	00000110 	.word	0x00000110
     3ac:	00000110 	.word	0x00000110
     3b0:	00000157 	.word	0x00000157
     3b4:	000000e8 	.word	0x000000e8
     3b8:	0000015a 	.word	0x0000015a
     3bc:	000000a0 	.word	0x000000a0
     3c0:	0000009c 	.word	0x0000009c
     3c4:	0000015d 	.word	0x0000015d
     3c8:	00000074 	.word	0x00000074

000003cc <_switch_core_media_pass_zrtp_hash2>:
     3cc:	e59f31dc 	ldr	r3, [pc, #476]	; 5b0 <_switch_core_media_pass_zrtp_hash2+0x1e4>
     3d0:	e92d4ff0 	push	{r4, r5, r6, r7, r8, r9, sl, fp, lr}
     3d4:	e1a04000 	mov	r4, r0
     3d8:	e7906003 	ldr	r6, [r0, r3]
     3dc:	e24dd014 	sub	sp, sp, #20
     3e0:	e3560000 	cmp	r6, #0
     3e4:	e1a05001 	mov	r5, r1
     3e8:	e1a09002 	mov	r9, r2
     3ec:	0a00006d 	beq	5a8 <_switch_core_media_pass_zrtp_hash2+0x1dc>
     3f0:	e7917003 	ldr	r7, [r1, r3]
     3f4:	e3570000 	cmp	r7, #0
     3f8:	0a00006a 	beq	5a8 <_switch_core_media_pass_zrtp_hash2+0x1dc>
     3fc:	e5900018 	ldr	r0, [r0, #24]
     400:	ebfffffe 	bl	0 <switch_channel_get_session>
     404:	e59fa1a8 	ldr	sl, [pc, #424]	; 5b4 <_switch_core_media_pass_zrtp_hash2+0x1e8>
     408:	e59f81a8 	ldr	r8, [pc, #424]	; 5b8 <_switch_core_media_pass_zrtp_hash2+0x1ec>
     40c:	e08fa00a 	add	sl, pc, sl
     410:	e59fc1a4 	ldr	ip, [pc, #420]	; 5bc <_switch_core_media_pass_zrtp_hash2+0x1f0>
     414:	e08f8008 	add	r8, pc, r8
     418:	e28aa024 	add	sl, sl, #36	; 0x24
     41c:	e08fc00c 	add	ip, pc, ip
     420:	e1a01008 	mov	r1, r8
     424:	e1a0200a 	mov	r2, sl
     428:	e3a030ff 	mov	r3, #255	; 0xff
     42c:	e3a0b065 	mov	fp, #101	; 0x65
     430:	e58dc008 	str	ip, [sp, #8]
     434:	e58db004 	str	fp, [sp, #4]
     438:	e58d0000 	str	r0, [sp]
     43c:	e3a00003 	mov	r0, #3
     440:	ebfffffe 	bl	0 <switch_log_printf>
     444:	e5940018 	ldr	r0, [r4, #24]
     448:	e3a01049 	mov	r1, #73	; 0x49
     44c:	ebfffffe 	bl	0 <switch_channel_test_flag>
     450:	e3500000 	cmp	r0, #0
     454:	0a000047 	beq	578 <_switch_core_media_pass_zrtp_hash2+0x1ac>
     458:	e59f3160 	ldr	r3, [pc, #352]	; 5c0 <_switch_core_media_pass_zrtp_hash2+0x1f4>
     45c:	e0090993 	mul	r9, r3, r9
     460:	e2899050 	add	r9, r9, #80	; 0x50
     464:	e0866009 	add	r6, r6, r9
     468:	e0877009 	add	r7, r7, r9
     46c:	e596373c 	ldr	r3, [r6, #1852]	; 0x73c
     470:	e3530000 	cmp	r3, #0
     474:	0a00001a 	beq	4e4 <_switch_core_media_pass_zrtp_hash2+0x118>
     478:	e5940018 	ldr	r0, [r4, #24]
     47c:	ebfffffe 	bl	0 <switch_channel_get_session>
     480:	e3a0c007 	mov	ip, #7
     484:	e58dc004 	str	ip, [sp, #4]
     488:	e59fc134 	ldr	ip, [pc, #308]	; 5c4 <_switch_core_media_pass_zrtp_hash2+0x1f8>
     48c:	e1a01008 	mov	r1, r8
     490:	e08fc00c 	add	ip, pc, ip
     494:	e1a0200a 	mov	r2, sl
     498:	e59f3128 	ldr	r3, [pc, #296]	; 5c8 <_switch_core_media_pass_zrtp_hash2+0x1fc>
     49c:	e58dc008 	str	ip, [sp, #8]
     4a0:	e58d0000 	str	r0, [sp]
     4a4:	e3a00003 	mov	r0, #3
     4a8:	ebfffffe 	bl	0 <switch_log_printf>
     4ac:	e59fc118 	ldr	ip, [pc, #280]	; 5cc <_switch_core_media_pass_zrtp_hash2+0x200>
     4b0:	e596173c 	ldr	r1, [r6, #1852]	; 0x73c
     4b4:	e1a02008 	mov	r2, r8
     4b8:	e1a0300a 	mov	r3, sl
     4bc:	e1a00005 	mov	r0, r5
     4c0:	e58dc000 	str	ip, [sp]
     4c4:	ebfffffe 	bl	0 <switch_core_perform_session_strdup>
     4c8:	e59f1100 	ldr	r1, [pc, #256]	; 5d0 <_switch_core_media_pass_zrtp_hash2+0x204>
     4cc:	e3a03001 	mov	r3, #1
     4d0:	e08f1001 	add	r1, pc, r1
     4d4:	e1a02000 	mov	r2, r0
     4d8:	e5870738 	str	r0, [r7, #1848]	; 0x738
     4dc:	e5950018 	ldr	r0, [r5, #24]
     4e0:	ebfffffe 	bl	0 <switch_channel_set_variable_var_check>
     4e4:	e597373c 	ldr	r3, [r7, #1852]	; 0x73c
     4e8:	e3530000 	cmp	r3, #0
     4ec:	0a00002d 	beq	5a8 <_switch_core_media_pass_zrtp_hash2+0x1dc>
     4f0:	e5940018 	ldr	r0, [r4, #24]
     4f4:	ebfffffe 	bl	0 <switch_channel_get_session>
     4f8:	e59f80d4 	ldr	r8, [pc, #212]	; 5d4 <_switch_core_media_pass_zrtp_hash2+0x208>
     4fc:	e3a0c007 	mov	ip, #7
     500:	e59f50d0 	ldr	r5, [pc, #208]	; 5d8 <_switch_core_media_pass_zrtp_hash2+0x20c>
     504:	e58dc004 	str	ip, [sp, #4]
     508:	e08f8008 	add	r8, pc, r8
     50c:	e59fc0c8 	ldr	ip, [pc, #200]	; 5dc <_switch_core_media_pass_zrtp_hash2+0x210>
     510:	e08f5005 	add	r5, pc, r5
     514:	e2888024 	add	r8, r8, #36	; 0x24
     518:	e1a01005 	mov	r1, r5
     51c:	e1a02008 	mov	r2, r8
     520:	e08fc00c 	add	ip, pc, ip
     524:	e59f30b4 	ldr	r3, [pc, #180]	; 5e0 <_switch_core_media_pass_zrtp_hash2+0x214>
     528:	e58dc008 	str	ip, [sp, #8]
     52c:	e58d0000 	str	r0, [sp]
     530:	e3a00003 	mov	r0, #3
     534:	ebfffffe 	bl	0 <switch_log_printf>
     538:	e597173c 	ldr	r1, [r7, #1852]	; 0x73c
     53c:	e1a02005 	mov	r2, r5
     540:	e1a03008 	mov	r3, r8
     544:	e3a0ce11 	mov	ip, #272	; 0x110
     548:	e1a00004 	mov	r0, r4
     54c:	e58dc000 	str	ip, [sp]
     550:	ebfffffe 	bl	0 <switch_core_perform_session_strdup>
     554:	e59f1088 	ldr	r1, [pc, #136]	; 5e4 <_switch_core_media_pass_zrtp_hash2+0x218>
     558:	e3a03001 	mov	r3, #1
     55c:	e08f1001 	add	r1, pc, r1
     560:	e1a02000 	mov	r2, r0
     564:	e5860738 	str	r0, [r6, #1848]	; 0x738
     568:	e5940018 	ldr	r0, [r4, #24]
     56c:	e28dd014 	add	sp, sp, #20
     570:	e8bd4ff0 	pop	{r4, r5, r6, r7, r8, r9, sl, fp, lr}
     574:	eafffffe 	b	0 <switch_channel_set_variable_var_check>
     578:	e5940018 	ldr	r0, [r4, #24]
     57c:	ebfffffe 	bl	0 <switch_channel_get_session>
     580:	e59fc060 	ldr	ip, [pc, #96]	; 5e8 <_switch_core_media_pass_zrtp_hash2+0x21c>
     584:	e1a01008 	mov	r1, r8
     588:	e08fc00c 	add	ip, pc, ip
     58c:	e1a0200a 	mov	r2, sl
     590:	e59f3054 	ldr	r3, [pc, #84]	; 5ec <_switch_core_media_pass_zrtp_hash2+0x220>
     594:	e58db004 	str	fp, [sp, #4]
     598:	e58dc008 	str	ip, [sp, #8]
     59c:	e58d0000 	str	r0, [sp]
     5a0:	e3a00003 	mov	r0, #3
     5a4:	ebfffffe 	bl	0 <switch_log_printf>
     5a8:	e28dd014 	add	sp, sp, #20
     5ac:	e8bd8ff0 	pop	{r4, r5, r6, r7, r8, r9, sl, fp, pc}
     5b0:	000056cc 	.word	0x000056cc
     5b4:	000001a0 	.word	0x000001a0
     5b8:	0000019c 	.word	0x0000019c
     5bc:	00000198 	.word	0x00000198
     5c0:	00002c98 	.word	0x00002c98
     5c4:	0000012c 	.word	0x0000012c
     5c8:	00000109 	.word	0x00000109
     5cc:	0000010a 	.word	0x0000010a
     5d0:	000000f8 	.word	0x000000f8
     5d4:	000000c4 	.word	0x000000c4
     5d8:	000000c0 	.word	0x000000c0
     5dc:	000000b4 	.word	0x000000b4
     5e0:	0000010f 	.word	0x0000010f
     5e4:	00000080 	.word	0x00000080
     5e8:	00000058 	.word	0x00000058
     5ec:	00000103 	.word	0x00000103

000005f0 <switch_true>:
     5f0:	e92d4010 	push	{r4, lr}
     5f4:	e2504000 	subs	r4, r0, #0
     5f8:	01a00004 	moveq	r0, r4
     5fc:	08bd8010 	popeq	{r4, pc}
     600:	e59f10d8 	ldr	r1, [pc, #216]	; 6e0 <switch_true+0xf0>
     604:	e08f1001 	add	r1, pc, r1
     608:	ebfffffe 	bl	0 <strcasecmp>
     60c:	e3500000 	cmp	r0, #0
     610:	0a000025 	beq	6ac <switch_true+0xbc>
     614:	e59f10c8 	ldr	r1, [pc, #200]	; 6e4 <switch_true+0xf4>
     618:	e1a00004 	mov	r0, r4
     61c:	e08f1001 	add	r1, pc, r1
     620:	ebfffffe 	bl	0 <strcasecmp>
     624:	e3500000 	cmp	r0, #0
     628:	0a00001f 	beq	6ac <switch_true+0xbc>
     62c:	e59f10b4 	ldr	r1, [pc, #180]	; 6e8 <switch_true+0xf8>
     630:	e1a00004 	mov	r0, r4
     634:	e08f1001 	add	r1, pc, r1
     638:	ebfffffe 	bl	0 <strcasecmp>
     63c:	e3500000 	cmp	r0, #0
     640:	0a000019 	beq	6ac <switch_true+0xbc>
     644:	e59f10a0 	ldr	r1, [pc, #160]	; 6ec <switch_true+0xfc>
     648:	e1a00004 	mov	r0, r4
     64c:	e08f1001 	add	r1, pc, r1
     650:	ebfffffe 	bl	0 <strcasecmp>
     654:	e3500000 	cmp	r0, #0
     658:	0a000013 	beq	6ac <switch_true+0xbc>
     65c:	e59f108c 	ldr	r1, [pc, #140]	; 6f0 <switch_true+0x100>
     660:	e1a00004 	mov	r0, r4
     664:	e08f1001 	add	r1, pc, r1
     668:	ebfffffe 	bl	0 <strcasecmp>
     66c:	e3500000 	cmp	r0, #0
     670:	0a00000d 	beq	6ac <switch_true+0xbc>
     674:	e59f1078 	ldr	r1, [pc, #120]	; 6f4 <switch_true+0x104>
     678:	e1a00004 	mov	r0, r4
     67c:	e08f1001 	add	r1, pc, r1
     680:	ebfffffe 	bl	0 <strcasecmp>
     684:	e3500000 	cmp	r0, #0
     688:	0a000007 	beq	6ac <switch_true+0xbc>
     68c:	e59f1064 	ldr	r1, [pc, #100]	; 6f8 <switch_true+0x108>
     690:	e1a00004 	mov	r0, r4
     694:	e08f1001 	add	r1, pc, r1
     698:	ebfffffe 	bl	0 <strcasecmp>
     69c:	e3500000 	cmp	r0, #0
     6a0:	1a000003 	bne	6b4 <switch_true+0xc4>
     6a4:	e3a00001 	mov	r0, #1
     6a8:	e8bd8010 	pop	{r4, pc}
     6ac:	e3a00001 	mov	r0, #1
     6b0:	e8bd8010 	pop	{r4, pc}
     6b4:	e1a00004 	mov	r0, r4
     6b8:	ebfffffe 	bl	0 <switch_is_number>
     6bc:	e3500000 	cmp	r0, #0
     6c0:	08bd8010 	popeq	{r4, pc}
     6c4:	e1a00004 	mov	r0, r4
     6c8:	e3a01000 	mov	r1, #0
     6cc:	e3a0200a 	mov	r2, #10
     6d0:	ebfffffe 	bl	0 <strtol>
     6d4:	e2900000 	adds	r0, r0, #0
     6d8:	13a00001 	movne	r0, #1
     6dc:	e8bd8010 	pop	{r4, pc}
     6e0:	000000d4 	.word	0x000000d4
     6e4:	000000c0 	.word	0x000000c0
     6e8:	000000ac 	.word	0x000000ac
     6ec:	00000098 	.word	0x00000098
     6f0:	00000084 	.word	0x00000084
     6f4:	00000070 	.word	0x00000070
     6f8:	0000005c 	.word	0x0000005c

000006fc <switch_false>:
     6fc:	e92d4010 	push	{r4, lr}
     700:	e2504000 	subs	r4, r0, #0
     704:	01a00004 	moveq	r0, r4
     708:	08bd8010 	popeq	{r4, pc}
     70c:	e59f10d8 	ldr	r1, [pc, #216]	; 7ec <switch_false+0xf0>
     710:	e08f1001 	add	r1, pc, r1
     714:	ebfffffe 	bl	0 <strcasecmp>
     718:	e3500000 	cmp	r0, #0
     71c:	0a000025 	beq	7b8 <switch_false+0xbc>
     720:	e59f10c8 	ldr	r1, [pc, #200]	; 7f0 <switch_false+0xf4>
     724:	e1a00004 	mov	r0, r4
     728:	e08f1001 	add	r1, pc, r1
     72c:	ebfffffe 	bl	0 <strcasecmp>
     730:	e3500000 	cmp	r0, #0
     734:	0a00001f 	beq	7b8 <switch_false+0xbc>
     738:	e59f10b4 	ldr	r1, [pc, #180]	; 7f4 <switch_false+0xf8>
     73c:	e1a00004 	mov	r0, r4
     740:	e08f1001 	add	r1, pc, r1
     744:	ebfffffe 	bl	0 <strcasecmp>
     748:	e3500000 	cmp	r0, #0
     74c:	0a000019 	beq	7b8 <switch_false+0xbc>
     750:	e59f10a0 	ldr	r1, [pc, #160]	; 7f8 <switch_false+0xfc>
     754:	e1a00004 	mov	r0, r4
     758:	e08f1001 	add	r1, pc, r1
     75c:	ebfffffe 	bl	0 <strcasecmp>
     760:	e3500000 	cmp	r0, #0
     764:	0a000013 	beq	7b8 <switch_false+0xbc>
     768:	e59f108c 	ldr	r1, [pc, #140]	; 7fc <switch_false+0x100>
     76c:	e1a00004 	mov	r0, r4
     770:	e08f1001 	add	r1, pc, r1
     774:	ebfffffe 	bl	0 <strcasecmp>
     778:	e3500000 	cmp	r0, #0
     77c:	0a00000d 	beq	7b8 <switch_false+0xbc>
     780:	e59f1078 	ldr	r1, [pc, #120]	; 800 <switch_false+0x104>
     784:	e1a00004 	mov	r0, r4
     788:	e08f1001 	add	r1, pc, r1
     78c:	ebfffffe 	bl	0 <strcasecmp>
     790:	e3500000 	cmp	r0, #0
     794:	0a000007 	beq	7b8 <switch_false+0xbc>
     798:	e59f1064 	ldr	r1, [pc, #100]	; 804 <switch_false+0x108>
     79c:	e1a00004 	mov	r0, r4
     7a0:	e08f1001 	add	r1, pc, r1
     7a4:	ebfffffe 	bl	0 <strcasecmp>
     7a8:	e3500000 	cmp	r0, #0
     7ac:	1a000003 	bne	7c0 <switch_false+0xc4>
     7b0:	e3a00001 	mov	r0, #1
     7b4:	e8bd8010 	pop	{r4, pc}
     7b8:	e3a00001 	mov	r0, #1
     7bc:	e8bd8010 	pop	{r4, pc}
     7c0:	e1a00004 	mov	r0, r4
     7c4:	ebfffffe 	bl	0 <switch_is_number>
     7c8:	e3500000 	cmp	r0, #0
     7cc:	08bd8010 	popeq	{r4, pc}
     7d0:	e1a00004 	mov	r0, r4
     7d4:	e3a01000 	mov	r1, #0
     7d8:	e3a0200a 	mov	r2, #10
     7dc:	ebfffffe 	bl	0 <strtol>
     7e0:	e2700001 	rsbs	r0, r0, #1
     7e4:	33a00000 	movcc	r0, #0
     7e8:	e8bd8010 	pop	{r4, pc}
     7ec:	000000d4 	.word	0x000000d4
     7f0:	000000c0 	.word	0x000000c0
     7f4:	000000ac 	.word	0x000000ac
     7f8:	00000098 	.word	0x00000098
     7fc:	00000084 	.word	0x00000084
     800:	00000070 	.word	0x00000070
     804:	0000005c 	.word	0x0000005c

00000808 <gen_ice>:
     808:	e92d47f0 	push	{r4, r5, r6, r7, r8, r9, sl, lr}
     80c:	e24dd030 	sub	sp, sp, #48	; 0x30
     810:	e3a0c000 	mov	ip, #0
     814:	e250a000 	subs	sl, r0, #0
     818:	e1a06002 	mov	r6, r2
     81c:	e1a09003 	mov	r9, r3
     820:	e58dc00c 	str	ip, [sp, #12]
     824:	e58dc010 	str	ip, [sp, #16]
     828:	e58dc014 	str	ip, [sp, #20]
     82c:	e58dc018 	str	ip, [sp, #24]
     830:	e58dc01c 	str	ip, [sp, #28]
     834:	e58dc020 	str	ip, [sp, #32]
     838:	e58dc024 	str	ip, [sp, #36]	; 0x24
     83c:	e58dc028 	str	ip, [sp, #40]	; 0x28
     840:	e5cdc02c 	strb	ip, [sp, #44]	; 0x2c
     844:	0a00009d 	beq	ac0 <gen_ice+0x2b8>
     848:	e59f3294 	ldr	r3, [pc, #660]	; ae4 <gen_ice+0x2dc>
     84c:	e79a5003 	ldr	r5, [sl, r3]
     850:	e3550000 	cmp	r5, #0
     854:	0a000036 	beq	934 <gen_ice+0x12c>
     858:	e59f4288 	ldr	r4, [pc, #648]	; ae8 <gen_ice+0x2e0>
     85c:	e59f3288 	ldr	r3, [pc, #648]	; aec <gen_ice+0x2e4>
     860:	e59f8288 	ldr	r8, [pc, #648]	; af0 <gen_ice+0x2e8>
     864:	e0245194 	mla	r4, r4, r1, r5
     868:	e2844050 	add	r4, r4, #80	; 0x50
     86c:	e19420d3 	ldrsb	r2, [r4, r3]
     870:	e3520000 	cmp	r2, #0
     874:	03a02001 	moveq	r2, #1
     878:	07c42003 	strbeq	r2, [r4, r3]
     87c:	e7957008 	ldr	r7, [r5, r8]
     880:	e3570000 	cmp	r7, #0
     884:	0a00004b 	beq	9b8 <gen_ice+0x1b0>
     888:	e3a08c5d 	mov	r8, #23808	; 0x5d00
     88c:	e7957008 	ldr	r7, [r5, r8]
     890:	e3570000 	cmp	r7, #0
     894:	0a000058 	beq	9fc <gen_ice+0x1f4>
     898:	e59f7254 	ldr	r7, [pc, #596]	; af4 <gen_ice+0x2ec>
     89c:	e7945007 	ldr	r5, [r4, r7]
     8a0:	e3550000 	cmp	r5, #0
     8a4:	0a000065 	beq	a40 <gen_ice+0x238>
     8a8:	e3a05da9 	mov	r5, #10816	; 0x2a40
     8ac:	e7942005 	ldr	r2, [r4, r5]
     8b0:	e3520000 	cmp	r2, #0
     8b4:	0a000072 	beq	a84 <gen_ice+0x27c>
     8b8:	e3a05c19 	mov	r5, #6400	; 0x1900
     8bc:	e7947005 	ldr	r7, [r4, r5]
     8c0:	e3570000 	cmp	r7, #0
     8c4:	0a000029 	beq	970 <gen_ice+0x168>
     8c8:	e59f3228 	ldr	r3, [pc, #552]	; af8 <gen_ice+0x2f0>
     8cc:	e59f0228 	ldr	r0, [pc, #552]	; afc <gen_ice+0x2f4>
     8d0:	e59f1228 	ldr	r1, [pc, #552]	; b00 <gen_ice+0x2f8>
     8d4:	e7942003 	ldr	r2, [r4, r3]
     8d8:	e08f0000 	add	r0, pc, r0
     8dc:	e3520000 	cmp	r2, #0
     8e0:	03a02001 	moveq	r2, #1
     8e4:	07842003 	streq	r2, [r4, r3]
     8e8:	059f2214 	ldreq	r2, [pc, #532]	; b04 <gen_ice+0x2fc>
     8ec:	02833008 	addeq	r3, r3, #8
     8f0:	e7840001 	str	r0, [r4, r1]
     8f4:	07842003 	streq	r2, [r4, r3]
     8f8:	e3560000 	cmp	r6, #0
     8fc:	0a000002 	beq	90c <gen_ice+0x104>
     900:	e5d63000 	ldrb	r3, [r6]
     904:	e3530000 	cmp	r3, #0
     908:	1a00000b 	bne	93c <gen_ice+0x134>
     90c:	e3590000 	cmp	r9, #0
     910:	e59f21f0 	ldr	r2, [pc, #496]	; b08 <gen_ice+0x300>
     914:	159f31f0 	ldrne	r3, [pc, #496]	; b0c <gen_ice+0x304>
     918:	e08f2002 	add	r2, pc, r2
     91c:	118490b3 	strhne	r9, [r4, r3]
     920:	e59f31e8 	ldr	r3, [pc, #488]	; b10 <gen_ice+0x308>
     924:	e7842003 	str	r2, [r4, r3]
     928:	e2833004 	add	r3, r3, #4
     92c:	e3a02001 	mov	r2, #1
     930:	e7c42003 	strb	r2, [r4, r3]
     934:	e28dd030 	add	sp, sp, #48	; 0x30
     938:	e8bd87f0 	pop	{r4, r5, r6, r7, r8, r9, sl, pc}
     93c:	e59f31d0 	ldr	r3, [pc, #464]	; b14 <gen_ice+0x30c>
     940:	e59f21d0 	ldr	r2, [pc, #464]	; b18 <gen_ice+0x310>
     944:	e59fc1d0 	ldr	ip, [pc, #464]	; b1c <gen_ice+0x314>
     948:	e08f3003 	add	r3, pc, r3
     94c:	e2833050 	add	r3, r3, #80	; 0x50
     950:	e1a0000a 	mov	r0, sl
     954:	e1a01006 	mov	r1, r6
     958:	e08f2002 	add	r2, pc, r2
     95c:	e58dc000 	str	ip, [sp]
     960:	ebfffffe 	bl	0 <switch_core_perform_session_strdup>
     964:	e59f31b4 	ldr	r3, [pc, #436]	; b20 <gen_ice+0x318>
     968:	e7840003 	str	r0, [r4, r3]
     96c:	eaffffe6 	b	90c <gen_ice+0x104>
     970:	e59f21ac 	ldr	r2, [pc, #428]	; b24 <gen_ice+0x31c>
     974:	e28d000c 	add	r0, sp, #12
     978:	e3a0100a 	mov	r1, #10
     97c:	e08f2002 	add	r2, pc, r2
     980:	ebfffffe 	bl	0 <switch_stun_random_string>
     984:	e59f319c 	ldr	r3, [pc, #412]	; b28 <gen_ice+0x320>
     988:	e59f219c 	ldr	r2, [pc, #412]	; b2c <gen_ice+0x324>
     98c:	e59fc19c 	ldr	ip, [pc, #412]	; b30 <gen_ice+0x328>
     990:	e08f3003 	add	r3, pc, r3
     994:	e1a0000a 	mov	r0, sl
     998:	e28d100c 	add	r1, sp, #12
     99c:	e08f2002 	add	r2, pc, r2
     9a0:	e2833050 	add	r3, r3, #80	; 0x50
     9a4:	e5cd7016 	strb	r7, [sp, #22]
     9a8:	e58dc000 	str	ip, [sp]
     9ac:	ebfffffe 	bl	0 <switch_core_perform_session_strdup>
     9b0:	e7840005 	str	r0, [r4, r5]
     9b4:	eaffffc3 	b	8c8 <gen_ice+0xc0>
     9b8:	e28d000c 	add	r0, sp, #12
     9bc:	e3a01020 	mov	r1, #32
     9c0:	e1a02007 	mov	r2, r7
     9c4:	ebfffffe 	bl	0 <switch_stun_random_string>
     9c8:	e59f3164 	ldr	r3, [pc, #356]	; b34 <gen_ice+0x32c>
     9cc:	e59f2164 	ldr	r2, [pc, #356]	; b38 <gen_ice+0x330>
     9d0:	e59fc164 	ldr	ip, [pc, #356]	; b3c <gen_ice+0x334>
     9d4:	e08f3003 	add	r3, pc, r3
     9d8:	e1a0000a 	mov	r0, sl
     9dc:	e28d100c 	add	r1, sp, #12
     9e0:	e08f2002 	add	r2, pc, r2
     9e4:	e2833050 	add	r3, r3, #80	; 0x50
     9e8:	e5cd702c 	strb	r7, [sp, #44]	; 0x2c
     9ec:	e58dc000 	str	ip, [sp]
     9f0:	ebfffffe 	bl	0 <switch_core_perform_session_strdup>
     9f4:	e7850008 	str	r0, [r5, r8]
     9f8:	eaffffa2 	b	888 <gen_ice+0x80>
     9fc:	e28d000c 	add	r0, sp, #12
     a00:	e3a01010 	mov	r1, #16
     a04:	e1a02007 	mov	r2, r7
     a08:	ebfffffe 	bl	0 <switch_stun_random_string>
     a0c:	e59f312c 	ldr	r3, [pc, #300]	; b40 <gen_ice+0x338>
     a10:	e59f212c 	ldr	r2, [pc, #300]	; b44 <gen_ice+0x33c>
     a14:	e59fc12c 	ldr	ip, [pc, #300]	; b48 <gen_ice+0x340>
     a18:	e08f3003 	add	r3, pc, r3
     a1c:	e1a0000a 	mov	r0, sl
     a20:	e28d100c 	add	r1, sp, #12
     a24:	e08f2002 	add	r2, pc, r2
     a28:	e2833050 	add	r3, r3, #80	; 0x50
     a2c:	e5cd701c 	strb	r7, [sp, #28]
     a30:	e58dc000 	str	ip, [sp]
     a34:	ebfffffe 	bl	0 <switch_core_perform_session_strdup>
     a38:	e7850008 	str	r0, [r5, r8]
     a3c:	eaffff95 	b	898 <gen_ice+0x90>
     a40:	e28d000c 	add	r0, sp, #12
     a44:	e3a01010 	mov	r1, #16
     a48:	e1a02005 	mov	r2, r5
     a4c:	ebfffffe 	bl	0 <switch_stun_random_string>
     a50:	e59f30f4 	ldr	r3, [pc, #244]	; b4c <gen_ice+0x344>
     a54:	e59f20f4 	ldr	r2, [pc, #244]	; b50 <gen_ice+0x348>
     a58:	e59fc0f4 	ldr	ip, [pc, #244]	; b54 <gen_ice+0x34c>
     a5c:	e08f3003 	add	r3, pc, r3
     a60:	e1a0000a 	mov	r0, sl
     a64:	e28d100c 	add	r1, sp, #12
     a68:	e08f2002 	add	r2, pc, r2
     a6c:	e2833050 	add	r3, r3, #80	; 0x50
     a70:	e5cd501c 	strb	r5, [sp, #28]
     a74:	e58dc000 	str	ip, [sp]
     a78:	ebfffffe 	bl	0 <switch_core_perform_session_strdup>
     a7c:	e7840007 	str	r0, [r4, r7]
     a80:	eaffff88 	b	8a8 <gen_ice+0xa0>
     a84:	e28d000c 	add	r0, sp, #12
     a88:	e3a01010 	mov	r1, #16
     a8c:	ebfffffe 	bl	0 <switch_stun_random_string>
     a90:	e59f30c0 	ldr	r3, [pc, #192]	; b58 <gen_ice+0x350>
     a94:	e59f20c0 	ldr	r2, [pc, #192]	; b5c <gen_ice+0x354>
     a98:	e59fc0c0 	ldr	ip, [pc, #192]	; b60 <gen_ice+0x358>
     a9c:	e08f3003 	add	r3, pc, r3
     aa0:	e1a0000a 	mov	r0, sl
     aa4:	e28d100c 	add	r1, sp, #12
     aa8:	e08f2002 	add	r2, pc, r2
     aac:	e2833050 	add	r3, r3, #80	; 0x50
     ab0:	e58dc000 	str	ip, [sp]
     ab4:	ebfffffe 	bl	0 <switch_core_perform_session_strdup>
     ab8:	e7840005 	str	r0, [r4, r5]
     abc:	eaffff7d 	b	8b8 <gen_ice+0xb0>
     ac0:	e59f309c 	ldr	r3, [pc, #156]	; b64 <gen_ice+0x35c>
     ac4:	e59f009c 	ldr	r0, [pc, #156]	; b68 <gen_ice+0x360>
     ac8:	e59f109c 	ldr	r1, [pc, #156]	; b6c <gen_ice+0x364>
     acc:	e08f3003 	add	r3, pc, r3
     ad0:	e08f0000 	add	r0, pc, r0
     ad4:	e08f1001 	add	r1, pc, r1
     ad8:	e3a02c12 	mov	r2, #4608	; 0x1200
     adc:	e2833048 	add	r3, r3, #72	; 0x48
     ae0:	ebfffffe 	bl	0 <__assert_fail>
     ae4:	000056cc 	.word	0x000056cc
     ae8:	00002c98 	.word	0x00002c98
     aec:	00002a48 	.word	0x00002a48
     af0:	00005cfc 	.word	0x00005cfc
     af4:	00002a3c 	.word	0x00002a3c
     af8:	00001904 	.word	0x00001904
     afc:	0000021c 	.word	0x0000021c
     b00:	00001908 	.word	0x00001908
     b04:	000a0ec0 	.word	0x000a0ec0
     b08:	000001e8 	.word	0x000001e8
     b0c:	00001914 	.word	0x00001914
     b10:	00001924 	.word	0x00001924
     b14:	000001c4 	.word	0x000001c4
     b18:	000001b8 	.word	0x000001b8
     b1c:	00001233 	.word	0x00001233
     b20:	00001910 	.word	0x00001910
     b24:	000001a0 	.word	0x000001a0
     b28:	00000190 	.word	0x00000190
     b2c:	00000188 	.word	0x00000188
     b30:	00001228 	.word	0x00001228
     b34:	00000158 	.word	0x00000158
     b38:	00000150 	.word	0x00000150
     b3c:	00001211 	.word	0x00001211
     b40:	00000120 	.word	0x00000120
     b44:	00000118 	.word	0x00000118
     b48:	00001217 	.word	0x00001217
     b4c:	000000e8 	.word	0x000000e8
     b50:	000000e0 	.word	0x000000e0
     b54:	0000121d 	.word	0x0000121d
     b58:	000000b4 	.word	0x000000b4
     b5c:	000000ac 	.word	0x000000ac
     b60:	00001222 	.word	0x00001222
     b64:	00000090 	.word	0x00000090
     b68:	00000090 	.word	0x00000090
     b6c:	00000090 	.word	0x00000090

00000b70 <generate_local_fingerprint>:
     b70:	e59f304c 	ldr	r3, [pc, #76]	; bc4 <generate_local_fingerprint+0x54>
     b74:	e59f204c 	ldr	r2, [pc, #76]	; bc8 <generate_local_fingerprint+0x58>
     b78:	e0230193 	mla	r3, r3, r1, r0
     b7c:	e2833050 	add	r3, r3, #80	; 0x50
     b80:	e7932002 	ldr	r2, [r3, r2]
     b84:	e3520000 	cmp	r2, #0
     b88:	112fff1e 	bxne	lr
     b8c:	e59f2038 	ldr	r2, [pc, #56]	; bcc <generate_local_fingerprint+0x5c>
     b90:	e7932002 	ldr	r2, [r3, r2]
     b94:	e3520000 	cmp	r2, #0
     b98:	0a000006 	beq	bb8 <generate_local_fingerprint+0x48>
     b9c:	e59fc02c 	ldr	ip, [pc, #44]	; bd0 <generate_local_fingerprint+0x60>
     ba0:	e59f002c 	ldr	r0, [pc, #44]	; bd4 <generate_local_fingerprint+0x64>
     ba4:	e2831da9 	add	r1, r3, #10816	; 0x2a40
     ba8:	e08f0000 	add	r0, pc, r0
     bac:	e783200c 	str	r2, [r3, ip]
     bb0:	e281100c 	add	r1, r1, #12
     bb4:	eafffffe 	b	0 <switch_core_cert_gen_fingerprint>
     bb8:	e59f2018 	ldr	r2, [pc, #24]	; bd8 <generate_local_fingerprint+0x68>
     bbc:	e08f2002 	add	r2, pc, r2
     bc0:	eafffff5 	b	b9c <generate_local_fingerprint+0x2c>
     bc4:	00002c98 	.word	0x00002c98
     bc8:	00002a4c 	.word	0x00002a4c
     bcc:	00002ba0 	.word	0x00002ba0
     bd0:	00002a94 	.word	0x00002a94
     bd4:	00000024 	.word	0x00000024
     bd8:	00000014 	.word	0x00000014

00000bdc <video_helper_thread>:
     bdc:	e92d4ff0 	push	{r4, r5, r6, r7, r8, r9, sl, fp, lr}
     be0:	e24dd024 	sub	sp, sp, #36	; 0x24
     be4:	e5915000 	ldr	r5, [r1]
     be8:	e1a06001 	mov	r6, r1
     bec:	e1a00005 	mov	r0, r5
     bf0:	ebfffffe 	bl	0 <switch_core_session_get_channel>
     bf4:	e59f3320 	ldr	r3, [pc, #800]	; f1c <video_helper_thread+0x340>
     bf8:	e7953003 	ldr	r3, [r5, r3]
     bfc:	e3530000 	cmp	r3, #0
     c00:	e1a04000 	mov	r4, r0
     c04:	0a00006a 	beq	db4 <video_helper_thread+0x1d8>
     c08:	e1a00005 	mov	r0, r5
     c0c:	ebfffffe 	bl	0 <switch_core_session_read_lock>
     c10:	e3a03001 	mov	r3, #1
     c14:	e586300c 	str	r3, [r6, #12]
     c18:	e5960008 	ldr	r0, [r6, #8]
     c1c:	ebfffffe 	bl	0 <switch_mutex_lock>
     c20:	e5950018 	ldr	r0, [r5, #24]
     c24:	ebfffffe 	bl	0 <switch_channel_get_name>
     c28:	e3a01073 	mov	r1, #115	; 0x73
     c2c:	e1a07000 	mov	r7, r0
     c30:	e1a00004 	mov	r0, r4
     c34:	ebfffffe 	bl	0 <switch_channel_test_flag>
     c38:	e59fe2e0 	ldr	lr, [pc, #736]	; f20 <video_helper_thread+0x344>
     c3c:	e08fe00e 	add	lr, pc, lr
     c40:	e3500000 	cmp	r0, #0
     c44:	0a0000a7 	beq	ee8 <video_helper_thread+0x30c>
     c48:	e3a0c000 	mov	ip, #0
     c4c:	e1a0000c 	mov	r0, ip
     c50:	e58dc000 	str	ip, [sp]
     c54:	e59f22c8 	ldr	r2, [pc, #712]	; f24 <video_helper_thread+0x348>
     c58:	e3a0c007 	mov	ip, #7
     c5c:	e58dc004 	str	ip, [sp, #4]
     c60:	e59f12c0 	ldr	r1, [pc, #704]	; f28 <video_helper_thread+0x34c>
     c64:	e59fc2c0 	ldr	ip, [pc, #704]	; f2c <video_helper_thread+0x350>
     c68:	e08f2002 	add	r2, pc, r2
     c6c:	e08fc00c 	add	ip, pc, ip
     c70:	e08f1001 	add	r1, pc, r1
     c74:	e282206c 	add	r2, r2, #108	; 0x6c
     c78:	e59f32b0 	ldr	r3, [pc, #688]	; f30 <video_helper_thread+0x354>
     c7c:	e58dc008 	str	ip, [sp, #8]
     c80:	e58de010 	str	lr, [sp, #16]
     c84:	e58d700c 	str	r7, [sp, #12]
     c88:	ebfffffe 	bl	0 <switch_log_printf>
     c8c:	e1a00005 	mov	r0, r5
     c90:	ebfffffe 	bl	0 <switch_core_session_refresh_video>
     c94:	e59fa298 	ldr	sl, [pc, #664]	; f34 <video_helper_thread+0x358>
     c98:	e59fb298 	ldr	fp, [pc, #664]	; f38 <video_helper_thread+0x35c>
     c9c:	e59f8298 	ldr	r8, [pc, #664]	; f3c <video_helper_thread+0x360>
     ca0:	e59f9298 	ldr	r9, [pc, #664]	; f40 <video_helper_thread+0x364>
     ca4:	e08fa00a 	add	sl, pc, sl
     ca8:	e08fb00b 	add	fp, pc, fp
     cac:	e08f8008 	add	r8, pc, r8
     cb0:	e28aa06c 	add	sl, sl, #108	; 0x6c
     cb4:	e08f9009 	add	r9, pc, r9
     cb8:	e28bb06c 	add	fp, fp, #108	; 0x6c
     cbc:	e1a00004 	mov	r0, r4
     cc0:	ebfffffe 	bl	0 <switch_channel_get_state>
     cc4:	e3500009 	cmp	r0, #9
     cc8:	8a000022 	bhi	d58 <video_helper_thread+0x17c>
     ccc:	e1a00004 	mov	r0, r4
     cd0:	e3a01071 	mov	r1, #113	; 0x71
     cd4:	ebfffffe 	bl	0 <switch_channel_test_flag>
     cd8:	e3500000 	cmp	r0, #0
     cdc:	1a000037 	bne	dc0 <video_helper_thread+0x1e4>
     ce0:	e1a00004 	mov	r0, r4
     ce4:	e3a01071 	mov	r1, #113	; 0x71
     ce8:	ebfffffe 	bl	0 <switch_channel_test_flag>
     cec:	e3500000 	cmp	r0, #0
     cf0:	1afffff1 	bne	cbc <video_helper_thread+0xe0>
     cf4:	e5950018 	ldr	r0, [r5, #24]
     cf8:	e3a01001 	mov	r1, #1
     cfc:	ebfffffe 	bl	0 <switch_channel_test_flag>
     d00:	e3500000 	cmp	r0, #0
     d04:	1a000004 	bne	d1c <video_helper_thread+0x140>
     d08:	e5950018 	ldr	r0, [r5, #24]
     d0c:	e3a01003 	mov	r1, #3
     d10:	ebfffffe 	bl	0 <switch_channel_test_flag>
     d14:	e3500000 	cmp	r0, #0
     d18:	0a00007b 	beq	f0c <video_helper_thread+0x330>
     d1c:	e3a02000 	mov	r2, #0
     d20:	e1a00005 	mov	r0, r5
     d24:	e28d101c 	add	r1, sp, #28
     d28:	e1a03002 	mov	r3, r2
     d2c:	ebfffffe 	bl	0 <switch_core_session_read_video_frame>
     d30:	e350000b 	cmp	r0, #11
     d34:	13500000 	cmpne	r0, #0
     d38:	0a000056 	beq	e98 <video_helper_thread+0x2bc>
     d3c:	e350000a 	cmp	r0, #10
     d40:	0a000054 	beq	e98 <video_helper_thread+0x2bc>
     d44:	ebfffffe 	bl	0 <switch_cond_next>
     d48:	e1a00004 	mov	r0, r4
     d4c:	ebfffffe 	bl	0 <switch_channel_get_state>
     d50:	e3500009 	cmp	r0, #9
     d54:	9affffdc 	bls	ccc <video_helper_thread+0xf0>
     d58:	e5950018 	ldr	r0, [r5, #24]
     d5c:	ebfffffe 	bl	0 <switch_channel_get_name>
     d60:	e3a0c007 	mov	ip, #7
     d64:	e59f21d8 	ldr	r2, [pc, #472]	; f44 <video_helper_thread+0x368>
     d68:	e58dc004 	str	ip, [sp, #4]
     d6c:	e59f11d4 	ldr	r1, [pc, #468]	; f48 <video_helper_thread+0x36c>
     d70:	e59fc1d4 	ldr	ip, [pc, #468]	; f4c <video_helper_thread+0x370>
     d74:	e3a04000 	mov	r4, #0
     d78:	e08f2002 	add	r2, pc, r2
     d7c:	e08fc00c 	add	ip, pc, ip
     d80:	e08f1001 	add	r1, pc, r1
     d84:	e282206c 	add	r2, r2, #108	; 0x6c
     d88:	e59f31c0 	ldr	r3, [pc, #448]	; f50 <video_helper_thread+0x374>
     d8c:	e58dc008 	str	ip, [sp, #8]
     d90:	e58d4000 	str	r4, [sp]
     d94:	e58d000c 	str	r0, [sp, #12]
     d98:	e1a00004 	mov	r0, r4
     d9c:	ebfffffe 	bl	0 <switch_log_printf>
     da0:	e5960008 	ldr	r0, [r6, #8]
     da4:	ebfffffe 	bl	0 <switch_mutex_unlock>
     da8:	e1a00005 	mov	r0, r5
     dac:	ebfffffe 	bl	0 <switch_core_session_rwunlock>
     db0:	e586400c 	str	r4, [r6, #12]
     db4:	e3a00000 	mov	r0, #0
     db8:	e28dd024 	add	sp, sp, #36	; 0x24
     dbc:	e8bd8ff0 	pop	{r4, r5, r6, r7, r8, r9, sl, fp, pc}
     dc0:	e5950018 	ldr	r0, [r5, #24]
     dc4:	ebfffffe 	bl	0 <switch_channel_get_name>
     dc8:	e3a01073 	mov	r1, #115	; 0x73
     dcc:	e1a07000 	mov	r7, r0
     dd0:	e1a00004 	mov	r0, r4
     dd4:	ebfffffe 	bl	0 <switch_channel_test_flag>
     dd8:	e59fe174 	ldr	lr, [pc, #372]	; f54 <video_helper_thread+0x378>
     ddc:	e08fe00e 	add	lr, pc, lr
     de0:	e3500000 	cmp	r0, #0
     de4:	059fe16c 	ldreq	lr, [pc, #364]	; f58 <video_helper_thread+0x37c>
     de8:	008fe00e 	addeq	lr, pc, lr
     dec:	e3a0c000 	mov	ip, #0
     df0:	e1a0200a 	mov	r2, sl
     df4:	e59f3160 	ldr	r3, [pc, #352]	; f5c <video_helper_thread+0x380>
     df8:	e1a0000c 	mov	r0, ip
     dfc:	e1a01008 	mov	r1, r8
     e00:	e58dc000 	str	ip, [sp]
     e04:	e3a0c007 	mov	ip, #7
     e08:	e58de010 	str	lr, [sp, #16]
     e0c:	e58dc004 	str	ip, [sp, #4]
     e10:	e58d700c 	str	r7, [sp, #12]
     e14:	e58d9008 	str	r9, [sp, #8]
     e18:	ebfffffe 	bl	0 <switch_log_printf>
     e1c:	e9960003 	ldmib	r6, {r0, r1}
     e20:	ebfffffe 	bl	0 <switch_thread_cond_wait>
     e24:	e5950018 	ldr	r0, [r5, #24]
     e28:	ebfffffe 	bl	0 <switch_channel_get_name>
     e2c:	e3a01073 	mov	r1, #115	; 0x73
     e30:	e1a07000 	mov	r7, r0
     e34:	e1a00004 	mov	r0, r4
     e38:	ebfffffe 	bl	0 <switch_channel_test_flag>
     e3c:	e59fe11c 	ldr	lr, [pc, #284]	; f60 <video_helper_thread+0x384>
     e40:	e08fe00e 	add	lr, pc, lr
     e44:	e3500000 	cmp	r0, #0
     e48:	059fe114 	ldreq	lr, [pc, #276]	; f64 <video_helper_thread+0x388>
     e4c:	008fe00e 	addeq	lr, pc, lr
     e50:	e3a0c000 	mov	ip, #0
     e54:	e1a0000c 	mov	r0, ip
     e58:	e58dc000 	str	ip, [sp]
     e5c:	e3a0c007 	mov	ip, #7
     e60:	e58dc004 	str	ip, [sp, #4]
     e64:	e59f10fc 	ldr	r1, [pc, #252]	; f68 <video_helper_thread+0x38c>
     e68:	e59fc0fc 	ldr	ip, [pc, #252]	; f6c <video_helper_thread+0x390>
     e6c:	e08f1001 	add	r1, pc, r1
     e70:	e08fc00c 	add	ip, pc, ip
     e74:	e1a0200b 	mov	r2, fp
     e78:	e59f30f0 	ldr	r3, [pc, #240]	; f70 <video_helper_thread+0x394>
     e7c:	e58dc008 	str	ip, [sp, #8]
     e80:	e58d700c 	str	r7, [sp, #12]
     e84:	e58de010 	str	lr, [sp, #16]
     e88:	ebfffffe 	bl	0 <switch_log_printf>
     e8c:	e1a00005 	mov	r0, r5
     e90:	ebfffffe 	bl	0 <switch_core_session_refresh_video>
     e94:	eaffff91 	b	ce0 <video_helper_thread+0x104>
     e98:	e1a00004 	mov	r0, r4
     e9c:	e3a01046 	mov	r1, #70	; 0x46
     ea0:	ebfffffe 	bl	0 <switch_channel_test_flag>
     ea4:	e3500000 	cmp	r0, #0
     ea8:	1a000011 	bne	ef4 <video_helper_thread+0x318>
     eac:	e59d301c 	ldr	r3, [sp, #28]
     eb0:	e593703c 	ldr	r7, [r3, #60]	; 0x3c
     eb4:	e2177001 	ands	r7, r7, #1
     eb8:	1affff7f 	bne	cbc <video_helper_thread+0xe0>
     ebc:	e1a00004 	mov	r0, r4
     ec0:	e3a01073 	mov	r1, #115	; 0x73
     ec4:	ebfffffe 	bl	0 <switch_channel_test_flag>
     ec8:	e3500000 	cmp	r0, #0
     ecc:	0affff7a 	beq	cbc <video_helper_thread+0xe0>
     ed0:	e1a02007 	mov	r2, r7
     ed4:	e1a00005 	mov	r0, r5
     ed8:	e59d101c 	ldr	r1, [sp, #28]
     edc:	e1a03007 	mov	r3, r7
     ee0:	ebfffffe 	bl	0 <switch_core_session_write_video_frame>
     ee4:	eaffff74 	b	cbc <video_helper_thread+0xe0>
     ee8:	e59fe084 	ldr	lr, [pc, #132]	; f74 <video_helper_thread+0x398>
     eec:	e08fe00e 	add	lr, pc, lr
     ef0:	eaffff54 	b	c48 <video_helper_thread+0x6c>
     ef4:	e1a00005 	mov	r0, r5
     ef8:	ebfffffe 	bl	0 <switch_core_session_refresh_video>
     efc:	e1a00004 	mov	r0, r4
     f00:	e3a01046 	mov	r1, #70	; 0x46
     f04:	ebfffffe 	bl	0 <switch_channel_clear_flag>
     f08:	eaffffe7 	b	eac <video_helper_thread+0x2d0>
     f0c:	e59f0064 	ldr	r0, [pc, #100]	; f78 <video_helper_thread+0x39c>
     f10:	e3a01000 	mov	r1, #0
     f14:	ebfffffe 	bl	0 <switch_sleep>
     f18:	eaffff67 	b	cbc <video_helper_thread+0xe0>
     f1c:	000056cc 	.word	0x000056cc
     f20:	000002dc 	.word	0x000002dc
     f24:	000002b4 	.word	0x000002b4
     f28:	000002b0 	.word	0x000002b0
     f2c:	000002b8 	.word	0x000002b8
     f30:	00000fcc 	.word	0x00000fcc
     f34:	00000288 	.word	0x00000288
     f38:	00000288 	.word	0x00000288
     f3c:	00000288 	.word	0x00000288
     f40:	00000284 	.word	0x00000284
     f44:	000001c4 	.word	0x000001c4
     f48:	000001c0 	.word	0x000001c0
     f4c:	000001c8 	.word	0x000001c8
     f50:	00000ffd 	.word	0x00000ffd
     f54:	00000170 	.word	0x00000170
     f58:	00000168 	.word	0x00000168
     f5c:	00000fd3 	.word	0x00000fd3
     f60:	00000118 	.word	0x00000118
     f64:	00000110 	.word	0x00000110
     f68:	000000f4 	.word	0x000000f4
     f6c:	000000f4 	.word	0x000000f4
     f70:	00000fd6 	.word	0x00000fd6
     f74:	00000080 	.word	0x00000080
     f78:	00002710 	.word	0x00002710

00000f7c <switch_core_media_process_udptl>:
     f7c:	e92d4ff0 	push	{r4, r5, r6, r7, r8, r9, sl, fp, lr}
     f80:	e1a06001 	mov	r6, r1
     f84:	e59f1498 	ldr	r1, [pc, #1176]	; 1424 <switch_core_media_process_udptl+0x4a8>
     f88:	e24dd00c 	sub	sp, sp, #12
     f8c:	e1a07000 	mov	r7, r0
     f90:	e08f1001 	add	r1, pc, r1
     f94:	e5900018 	ldr	r0, [r0, #24]
     f98:	e1a04002 	mov	r4, r2
     f9c:	ebfffffe 	bl	0 <switch_channel_get_private>
     fa0:	e2505000 	subs	r5, r0, #0
     fa4:	0a0000f7 	beq	1388 <switch_core_media_process_udptl+0x40c>
     fa8:	e596300c 	ldr	r3, [r6, #12]
     fac:	e5942014 	ldr	r2, [r4, #20]
     fb0:	e3530000 	cmp	r3, #0
     fb4:	e1c522bc 	strh	r2, [r5, #44]	; 0x2c
     fb8:	0a0000d5 	beq	1314 <switch_core_media_process_udptl+0x398>
     fbc:	e5931004 	ldr	r1, [r3, #4]
     fc0:	e59f3460 	ldr	r3, [pc, #1120]	; 1428 <switch_core_media_process_udptl+0x4ac>
     fc4:	e59f2460 	ldr	r2, [pc, #1120]	; 142c <switch_core_media_process_udptl+0x4b0>
     fc8:	e59fc460 	ldr	ip, [pc, #1120]	; 1430 <switch_core_media_process_udptl+0x4b4>
     fcc:	e08f3003 	add	r3, pc, r3
     fd0:	e1a00007 	mov	r0, r7
     fd4:	e08f2002 	add	r2, pc, r2
     fd8:	e2833080 	add	r3, r3, #128	; 0x80
     fdc:	e58dc000 	str	ip, [sp]
     fe0:	ebfffffe 	bl	0 <switch_core_perform_session_strdup>
     fe4:	e5850038 	str	r0, [r5, #56]	; 0x38
     fe8:	e5943030 	ldr	r3, [r4, #48]	; 0x30
     fec:	e3530000 	cmp	r3, #0
     ff0:	0a0000b6 	beq	12d0 <switch_core_media_process_udptl+0x354>
     ff4:	e5931010 	ldr	r1, [r3, #16]
     ff8:	e3510000 	cmp	r1, #0
     ffc:	0a0000b3 	beq	12d0 <switch_core_media_process_udptl+0x354>
    1000:	e59f342c 	ldr	r3, [pc, #1068]	; 1434 <switch_core_media_process_udptl+0x4b8>
    1004:	e59f242c 	ldr	r2, [pc, #1068]	; 1438 <switch_core_media_process_udptl+0x4bc>
    1008:	e59fc42c 	ldr	ip, [pc, #1068]	; 143c <switch_core_media_process_udptl+0x4c0>
    100c:	e08f3003 	add	r3, pc, r3
    1010:	e1a00007 	mov	r0, r7
    1014:	e08f2002 	add	r2, pc, r2
    1018:	e2833080 	add	r3, r3, #128	; 0x80
    101c:	e58dc000 	str	ip, [sp]
    1020:	ebfffffe 	bl	0 <switch_core_perform_session_strdup>
    1024:	e5850028 	str	r0, [r5, #40]	; 0x28
    1028:	e594403c 	ldr	r4, [r4, #60]	; 0x3c
    102c:	e3540000 	cmp	r4, #0
    1030:	0a000027 	beq	10d4 <switch_core_media_process_udptl+0x158>
    1034:	e59f9404 	ldr	r9, [pc, #1028]	; 1440 <switch_core_media_process_udptl+0x4c4>
    1038:	e59fa404 	ldr	sl, [pc, #1028]	; 1444 <switch_core_media_process_udptl+0x4c8>
    103c:	e59f6404 	ldr	r6, [pc, #1028]	; 1448 <switch_core_media_process_udptl+0x4cc>
    1040:	e59f8404 	ldr	r8, [pc, #1028]	; 144c <switch_core_media_process_udptl+0x4d0>
    1044:	e08f9009 	add	r9, pc, r9
    1048:	e08fa00a 	add	sl, pc, sl
    104c:	e08f6006 	add	r6, pc, r6
    1050:	e08f8008 	add	r8, pc, r8
    1054:	e2899080 	add	r9, r9, #128	; 0x80
    1058:	e28aa080 	add	sl, sl, #128	; 0x80
    105c:	ea000008 	b	1084 <switch_core_media_process_udptl+0x108>
    1060:	e594000c 	ldr	r0, [r4, #12]
    1064:	e3500000 	cmp	r0, #0
    1068:	0a00000b 	beq	109c <switch_core_media_process_udptl+0x120>
    106c:	e3a0200a 	mov	r2, #10
    1070:	ebfffffe 	bl	0 <strtol>
    1074:	e1c500b0 	strh	r0, [r5]
    1078:	e5944004 	ldr	r4, [r4, #4]
    107c:	e3540000 	cmp	r4, #0
    1080:	0a000013 	beq	10d4 <switch_core_media_process_udptl+0x158>
    1084:	e594b008 	ldr	fp, [r4, #8]
    1088:	e1a01006 	mov	r1, r6
    108c:	e1a0000b 	mov	r0, fp
    1090:	ebfffffe 	bl	0 <strcasecmp>
    1094:	e2501000 	subs	r1, r0, #0
    1098:	0afffff0 	beq	1060 <switch_core_media_process_udptl+0xe4>
    109c:	e1a01008 	mov	r1, r8
    10a0:	e1a0000b 	mov	r0, fp
    10a4:	ebfffffe 	bl	0 <strcasecmp>
    10a8:	e2501000 	subs	r1, r0, #0
    10ac:	1a000024 	bne	1144 <switch_core_media_process_udptl+0x1c8>
    10b0:	e594000c 	ldr	r0, [r4, #12]
    10b4:	e3500000 	cmp	r0, #0
    10b8:	0a000021 	beq	1144 <switch_core_media_process_udptl+0x1c8>
    10bc:	e3a0200a 	mov	r2, #10
    10c0:	ebfffffe 	bl	0 <strtol>
    10c4:	e5944004 	ldr	r4, [r4, #4]
    10c8:	e3540000 	cmp	r4, #0
    10cc:	e5850004 	str	r0, [r5, #4]
    10d0:	1affffeb 	bne	1084 <switch_core_media_process_udptl+0x108>
    10d4:	e59f1374 	ldr	r1, [pc, #884]	; 1450 <switch_core_media_process_udptl+0x4d4>
    10d8:	e59f2374 	ldr	r2, [pc, #884]	; 1454 <switch_core_media_process_udptl+0x4d8>
    10dc:	e3a03001 	mov	r3, #1
    10e0:	e08f1001 	add	r1, pc, r1
    10e4:	e08f2002 	add	r2, pc, r2
    10e8:	e5970018 	ldr	r0, [r7, #24]
    10ec:	ebfffffe 	bl	0 <switch_channel_set_variable_var_check>
    10f0:	e59f1360 	ldr	r1, [pc, #864]	; 1458 <switch_core_media_process_udptl+0x4dc>
    10f4:	e1a02005 	mov	r2, r5
    10f8:	e08f1001 	add	r1, pc, r1
    10fc:	e5970018 	ldr	r0, [r7, #24]
    1100:	ebfffffe 	bl	0 <switch_channel_set_private>
    1104:	e59f0350 	ldr	r0, [pc, #848]	; 145c <switch_core_media_process_udptl+0x4e0>
    1108:	e3a02002 	mov	r2, #2
    110c:	e5971018 	ldr	r1, [r7, #24]
    1110:	e08f0000 	add	r0, pc, r0
    1114:	ebfffffe 	bl	0 <switch_channel_set_app_flag_key>
    1118:	e59f1340 	ldr	r1, [pc, #832]	; 1460 <switch_core_media_process_udptl+0x4e4>
    111c:	e5970018 	ldr	r0, [r7, #24]
    1120:	e08f1001 	add	r1, pc, r1
    1124:	ebfffffe 	bl	0 <switch_channel_execute_on>
    1128:	e59f1334 	ldr	r1, [pc, #820]	; 1464 <switch_core_media_process_udptl+0x4e8>
    112c:	e5970018 	ldr	r0, [r7, #24]
    1130:	e08f1001 	add	r1, pc, r1
    1134:	ebfffffe 	bl	0 <switch_channel_api_on>
    1138:	e1a00005 	mov	r0, r5
    113c:	e28dd00c 	add	sp, sp, #12
    1140:	e8bd8ff0 	pop	{r4, r5, r6, r7, r8, r9, sl, fp, pc}
    1144:	e59f131c 	ldr	r1, [pc, #796]	; 1468 <switch_core_media_process_udptl+0x4ec>
    1148:	e1a0000b 	mov	r0, fp
    114c:	e08f1001 	add	r1, pc, r1
    1150:	ebfffffe 	bl	0 <strcasecmp>
    1154:	e2501000 	subs	r1, r0, #0
    1158:	1a000007 	bne	117c <switch_core_media_process_udptl+0x200>
    115c:	e594000c 	ldr	r0, [r4, #12]
    1160:	e3500000 	cmp	r0, #0
    1164:	03a00001 	moveq	r0, #1
    1168:	0a000001 	beq	1174 <switch_core_media_process_udptl+0x1f8>
    116c:	e3a0200a 	mov	r2, #10
    1170:	ebfffffe 	bl	0 <strtol>
    1174:	e5850008 	str	r0, [r5, #8]
    1178:	eaffffbe 	b	1078 <switch_core_media_process_udptl+0xfc>
    117c:	e59f12e8 	ldr	r1, [pc, #744]	; 146c <switch_core_media_process_udptl+0x4f0>
    1180:	e1a0000b 	mov	r0, fp
    1184:	e08f1001 	add	r1, pc, r1
    1188:	ebfffffe 	bl	0 <strcasecmp>
    118c:	e2501000 	subs	r1, r0, #0
    1190:	1a000007 	bne	11b4 <switch_core_media_process_udptl+0x238>
    1194:	e594000c 	ldr	r0, [r4, #12]
    1198:	e3500000 	cmp	r0, #0
    119c:	03a00001 	moveq	r0, #1
    11a0:	0a000001 	beq	11ac <switch_core_media_process_udptl+0x230>
    11a4:	e3a0200a 	mov	r2, #10
    11a8:	ebfffffe 	bl	0 <strtol>
    11ac:	e585000c 	str	r0, [r5, #12]
    11b0:	eaffffb0 	b	1078 <switch_core_media_process_udptl+0xfc>
    11b4:	e59f12b4 	ldr	r1, [pc, #692]	; 1470 <switch_core_media_process_udptl+0x4f4>
    11b8:	e1a0000b 	mov	r0, fp
    11bc:	e08f1001 	add	r1, pc, r1
    11c0:	ebfffffe 	bl	0 <strcasecmp>
    11c4:	e2501000 	subs	r1, r0, #0
    11c8:	1a000007 	bne	11ec <switch_core_media_process_udptl+0x270>
    11cc:	e594000c 	ldr	r0, [r4, #12]
    11d0:	e3500000 	cmp	r0, #0
    11d4:	03a00001 	moveq	r0, #1
    11d8:	0a000001 	beq	11e4 <switch_core_media_process_udptl+0x268>
    11dc:	e3a0200a 	mov	r2, #10
    11e0:	ebfffffe 	bl	0 <strtol>
    11e4:	e5850010 	str	r0, [r5, #16]
    11e8:	eaffffa2 	b	1078 <switch_core_media_process_udptl+0xfc>
    11ec:	e59f1280 	ldr	r1, [pc, #640]	; 1474 <switch_core_media_process_udptl+0x4f8>
    11f0:	e1a0000b 	mov	r0, fp
    11f4:	e08f1001 	add	r1, pc, r1
    11f8:	ebfffffe 	bl	0 <strcasecmp>
    11fc:	e3500000 	cmp	r0, #0
    1200:	1a00000d 	bne	123c <switch_core_media_process_udptl+0x2c0>
    1204:	e594100c 	ldr	r1, [r4, #12]
    1208:	e3510000 	cmp	r1, #0
    120c:	0a00000a 	beq	123c <switch_core_media_process_udptl+0x2c0>
    1210:	e59f3260 	ldr	r3, [pc, #608]	; 1478 <switch_core_media_process_udptl+0x4fc>
    1214:	e59f2260 	ldr	r2, [pc, #608]	; 147c <switch_core_media_process_udptl+0x500>
    1218:	e59fc260 	ldr	ip, [pc, #608]	; 1480 <switch_core_media_process_udptl+0x504>
    121c:	e08f3003 	add	r3, pc, r3
    1220:	e1a00007 	mov	r0, r7
    1224:	e08f2002 	add	r2, pc, r2
    1228:	e2833080 	add	r3, r3, #128	; 0x80
    122c:	e58dc000 	str	ip, [sp]
    1230:	ebfffffe 	bl	0 <switch_core_perform_session_strdup>
    1234:	e5850014 	str	r0, [r5, #20]
    1238:	eaffff8e 	b	1078 <switch_core_media_process_udptl+0xfc>
    123c:	e59f1240 	ldr	r1, [pc, #576]	; 1484 <switch_core_media_process_udptl+0x508>
    1240:	e1a0000b 	mov	r0, fp
    1244:	e08f1001 	add	r1, pc, r1
    1248:	ebfffffe 	bl	0 <strcasecmp>
    124c:	e2501000 	subs	r1, r0, #0
    1250:	1a000006 	bne	1270 <switch_core_media_process_udptl+0x2f4>
    1254:	e594000c 	ldr	r0, [r4, #12]
    1258:	e3500000 	cmp	r0, #0
    125c:	0a000003 	beq	1270 <switch_core_media_process_udptl+0x2f4>
    1260:	e3a0200a 	mov	r2, #10
    1264:	ebfffffe 	bl	0 <strtol>
    1268:	e5850018 	str	r0, [r5, #24]
    126c:	eaffff81 	b	1078 <switch_core_media_process_udptl+0xfc>
    1270:	e59f1210 	ldr	r1, [pc, #528]	; 1488 <switch_core_media_process_udptl+0x50c>
    1274:	e1a0000b 	mov	r0, fp
    1278:	e08f1001 	add	r1, pc, r1
    127c:	ebfffffe 	bl	0 <strcasecmp>
    1280:	e2501000 	subs	r1, r0, #0
    1284:	0a000026 	beq	1324 <switch_core_media_process_udptl+0x3a8>
    1288:	e59f11fc 	ldr	r1, [pc, #508]	; 148c <switch_core_media_process_udptl+0x510>
    128c:	e1a0000b 	mov	r0, fp
    1290:	e08f1001 	add	r1, pc, r1
    1294:	ebfffffe 	bl	0 <strcasecmp>
    1298:	e3500000 	cmp	r0, #0
    129c:	1a000027 	bne	1340 <switch_core_media_process_udptl+0x3c4>
    12a0:	e594100c 	ldr	r1, [r4, #12]
    12a4:	e3510000 	cmp	r1, #0
    12a8:	0a000024 	beq	1340 <switch_core_media_process_udptl+0x3c4>
    12ac:	e59f21dc 	ldr	r2, [pc, #476]	; 1490 <switch_core_media_process_udptl+0x514>
    12b0:	e3a0cf67 	mov	ip, #412	; 0x19c
    12b4:	e1a00007 	mov	r0, r7
    12b8:	e08f2002 	add	r2, pc, r2
    12bc:	e1a0300a 	mov	r3, sl
    12c0:	e58dc000 	str	ip, [sp]
    12c4:	ebfffffe 	bl	0 <switch_core_perform_session_strdup>
    12c8:	e5850020 	str	r0, [r5, #32]
    12cc:	eaffff69 	b	1078 <switch_core_media_process_udptl+0xfc>
    12d0:	e5963024 	ldr	r3, [r6, #36]	; 0x24
    12d4:	e3530000 	cmp	r3, #0
    12d8:	0affff52 	beq	1028 <switch_core_media_process_udptl+0xac>
    12dc:	e5931010 	ldr	r1, [r3, #16]
    12e0:	e3510000 	cmp	r1, #0
    12e4:	0affff4f 	beq	1028 <switch_core_media_process_udptl+0xac>
    12e8:	e59f31a4 	ldr	r3, [pc, #420]	; 1494 <switch_core_media_process_udptl+0x518>
    12ec:	e59f21a4 	ldr	r2, [pc, #420]	; 1498 <switch_core_media_process_udptl+0x51c>
    12f0:	e59fc1a4 	ldr	ip, [pc, #420]	; 149c <switch_core_media_process_udptl+0x520>
    12f4:	e08f3003 	add	r3, pc, r3
    12f8:	e1a00007 	mov	r0, r7
    12fc:	e08f2002 	add	r2, pc, r2
    1300:	e2833080 	add	r3, r3, #128	; 0x80
    1304:	e58dc000 	str	ip, [sp]
    1308:	ebfffffe 	bl	0 <switch_core_perform_session_strdup>
    130c:	e5850028 	str	r0, [r5, #40]	; 0x28
    1310:	eaffff44 	b	1028 <switch_core_media_process_udptl+0xac>
    1314:	e59f3184 	ldr	r3, [pc, #388]	; 14a0 <switch_core_media_process_udptl+0x524>
    1318:	e08f3003 	add	r3, pc, r3
    131c:	e5853038 	str	r3, [r5, #56]	; 0x38
    1320:	eaffff30 	b	fe8 <switch_core_media_process_udptl+0x6c>
    1324:	e594000c 	ldr	r0, [r4, #12]
    1328:	e3500000 	cmp	r0, #0
    132c:	0affffd5 	beq	1288 <switch_core_media_process_udptl+0x30c>
    1330:	e3a0200a 	mov	r2, #10
    1334:	ebfffffe 	bl	0 <strtol>
    1338:	e585001c 	str	r0, [r5, #28]
    133c:	eaffff4d 	b	1078 <switch_core_media_process_udptl+0xfc>
    1340:	e59f115c 	ldr	r1, [pc, #348]	; 14a4 <switch_core_media_process_udptl+0x528>
    1344:	e1a0000b 	mov	r0, fp
    1348:	e08f1001 	add	r1, pc, r1
    134c:	ebfffffe 	bl	0 <strcasecmp>
    1350:	e3500000 	cmp	r0, #0
    1354:	1affff47 	bne	1078 <switch_core_media_process_udptl+0xfc>
    1358:	e594100c 	ldr	r1, [r4, #12]
    135c:	e3510000 	cmp	r1, #0
    1360:	0affff44 	beq	1078 <switch_core_media_process_udptl+0xfc>
    1364:	e59f213c 	ldr	r2, [pc, #316]	; 14a8 <switch_core_media_process_udptl+0x52c>
    1368:	e59fc13c 	ldr	ip, [pc, #316]	; 14ac <switch_core_media_process_udptl+0x530>
    136c:	e1a00007 	mov	r0, r7
    1370:	e08f2002 	add	r2, pc, r2
    1374:	e1a03009 	mov	r3, r9
    1378:	e58dc000 	str	ip, [sp]
    137c:	ebfffffe 	bl	0 <switch_core_perform_session_strdup>
    1380:	e5850024 	str	r0, [r5, #36]	; 0x24
    1384:	eaffff3b 	b	1078 <switch_core_media_process_udptl+0xfc>
    1388:	e59fa120 	ldr	sl, [pc, #288]	; 14b0 <switch_core_media_process_udptl+0x534>
    138c:	e59f8120 	ldr	r8, [pc, #288]	; 14b4 <switch_core_media_process_udptl+0x538>
    1390:	e08fa00a 	add	sl, pc, sl
    1394:	e08f8008 	add	r8, pc, r8
    1398:	e28aa080 	add	sl, sl, #128	; 0x80
    139c:	e59fc114 	ldr	ip, [pc, #276]	; 14b8 <switch_core_media_process_udptl+0x53c>
    13a0:	e3a0103c 	mov	r1, #60	; 0x3c
    13a4:	e1a02008 	mov	r2, r8
    13a8:	e1a0300a 	mov	r3, sl
    13ac:	e1a00007 	mov	r0, r7
    13b0:	e58dc000 	str	ip, [sp]
    13b4:	ebfffffe 	bl	0 <switch_core_perform_session_alloc>
    13b8:	e3a03000 	mov	r3, #0
    13bc:	e59f10f8 	ldr	r1, [pc, #248]	; 14bc <switch_core_media_process_udptl+0x540>
    13c0:	e59fc0f8 	ldr	ip, [pc, #248]	; 14c0 <switch_core_media_process_udptl+0x544>
    13c4:	e08f1001 	add	r1, pc, r1
    13c8:	e1a02008 	mov	r2, r8
    13cc:	e1c030b0 	strh	r3, [r0]
    13d0:	e3a03de1 	mov	r3, #14400	; 0x3840
    13d4:	e1a05000 	mov	r5, r0
    13d8:	e5803004 	str	r3, [r0, #4]
    13dc:	e1a0300a 	mov	r3, sl
    13e0:	e1a00007 	mov	r0, r7
    13e4:	e58dc000 	str	ip, [sp]
    13e8:	ebfffffe 	bl	0 <switch_core_perform_session_strdup>
    13ec:	e59f10d0 	ldr	r1, [pc, #208]	; 14c4 <switch_core_media_process_udptl+0x548>
    13f0:	e59fc0d0 	ldr	ip, [pc, #208]	; 14c8 <switch_core_media_process_udptl+0x54c>
    13f4:	e1a0300a 	mov	r3, sl
    13f8:	e08f1001 	add	r1, pc, r1
    13fc:	e1a02008 	mov	r2, r8
    1400:	e5850014 	str	r0, [r5, #20]
    1404:	e1a00007 	mov	r0, r7
    1408:	e58dc000 	str	ip, [sp]
    140c:	ebfffffe 	bl	0 <switch_core_perform_session_strdup>
    1410:	e3a03f7d 	mov	r3, #500	; 0x1f4
    1414:	e5853018 	str	r3, [r5, #24]
    1418:	e585301c 	str	r3, [r5, #28]
    141c:	e5850020 	str	r0, [r5, #32]
    1420:	eafffee0 	b	fa8 <switch_core_media_process_udptl+0x2c>
    1424:	0000048c 	.word	0x0000048c
    1428:	00000454 	.word	0x00000454
    142c:	00000450 	.word	0x00000450
    1430:	0000017f 	.word	0x0000017f
    1434:	00000420 	.word	0x00000420
    1438:	0000041c 	.word	0x0000041c
    143c:	00000185 	.word	0x00000185
    1440:	000003f4 	.word	0x000003f4
    1444:	000003f4 	.word	0x000003f4
    1448:	000003f4 	.word	0x000003f4
    144c:	000003f4 	.word	0x000003f4
    1450:	00000368 	.word	0x00000368
    1454:	00000368 	.word	0x00000368
    1458:	00000358 	.word	0x00000358
    145c:	00000344 	.word	0x00000344
    1460:	00000338 	.word	0x00000338
    1464:	0000032c 	.word	0x0000032c
    1468:	00000314 	.word	0x00000314
    146c:	000002e0 	.word	0x000002e0
    1470:	000002ac 	.word	0x000002ac
    1474:	00000278 	.word	0x00000278
    1478:	00000254 	.word	0x00000254
    147c:	00000250 	.word	0x00000250
    1480:	00000196 	.word	0x00000196
    1484:	00000238 	.word	0x00000238
    1488:	00000208 	.word	0x00000208
    148c:	000001f4 	.word	0x000001f4
    1490:	000001d0 	.word	0x000001d0
    1494:	00000198 	.word	0x00000198
    1498:	00000194 	.word	0x00000194
    149c:	00000187 	.word	0x00000187
    14a0:	00000180 	.word	0x00000180
    14a4:	00000154 	.word	0x00000154
    14a8:	00000130 	.word	0x00000130
    14ac:	0000019e 	.word	0x0000019e
    14b0:	00000118 	.word	0x00000118
    14b4:	00000118 	.word	0x00000118
    14b8:	00000171 	.word	0x00000171
    14bc:	000000f0 	.word	0x000000f0
    14c0:	00000176 	.word	0x00000176
    14c4:	000000c4 	.word	0x000000c4
    14c8:	00000177 	.word	0x00000177

000014cc <get_media_profile_name>:
    14cc:	e92d4038 	push	{r3, r4, r5, lr}
    14d0:	e2504000 	subs	r4, r0, #0
    14d4:	e1a05001 	mov	r5, r1
    14d8:	0a000016 	beq	1538 <get_media_profile_name+0x6c>
    14dc:	e5940018 	ldr	r0, [r4, #24]
    14e0:	e3a0106a 	mov	r1, #106	; 0x6a
    14e4:	ebfffffe 	bl	0 <switch_channel_test_flag>
    14e8:	e3500000 	cmp	r0, #0
    14ec:	1a000006 	bne	150c <get_media_profile_name+0x40>
    14f0:	e59f0064 	ldr	r0, [pc, #100]	; 155c <get_media_profile_name+0x90>
    14f4:	e3550000 	cmp	r5, #0
    14f8:	e08f0000 	add	r0, pc, r0
    14fc:	18bd8038 	popne	{r3, r4, r5, pc}
    1500:	e59f0058 	ldr	r0, [pc, #88]	; 1560 <get_media_profile_name+0x94>
    1504:	e08f0000 	add	r0, pc, r0
    1508:	e8bd8038 	pop	{r3, r4, r5, pc}
    150c:	e5940018 	ldr	r0, [r4, #24]
    1510:	e3a0106b 	mov	r1, #107	; 0x6b
    1514:	ebfffffe 	bl	0 <switch_channel_test_flag>
    1518:	e3500000 	cmp	r0, #0
    151c:	0a000002 	beq	152c <get_media_profile_name+0x60>
    1520:	e59f003c 	ldr	r0, [pc, #60]	; 1564 <get_media_profile_name+0x98>
    1524:	e08f0000 	add	r0, pc, r0
    1528:	e8bd8038 	pop	{r3, r4, r5, pc}
    152c:	e59f0034 	ldr	r0, [pc, #52]	; 1568 <get_media_profile_name+0x9c>
    1530:	e08f0000 	add	r0, pc, r0
    1534:	e8bd8038 	pop	{r3, r4, r5, pc}
    1538:	e59f302c 	ldr	r3, [pc, #44]	; 156c <get_media_profile_name+0xa0>
    153c:	e59f002c 	ldr	r0, [pc, #44]	; 1570 <get_media_profile_name+0xa4>
    1540:	e59f102c 	ldr	r1, [pc, #44]	; 1574 <get_media_profile_name+0xa8>
    1544:	e08f3003 	add	r3, pc, r3
    1548:	e08f0000 	add	r0, pc, r0
    154c:	e08f1001 	add	r1, pc, r1
    1550:	e59f2020 	ldr	r2, [pc, #32]	; 1578 <get_media_profile_name+0xac>
    1554:	e28330a0 	add	r3, r3, #160	; 0xa0
    1558:	ebfffffe 	bl	0 <__assert_fail>
    155c:	0000005c 	.word	0x0000005c
    1560:	00000054 	.word	0x00000054
    1564:	00000038 	.word	0x00000038
    1568:	00000030 	.word	0x00000030
    156c:	00000020 	.word	0x00000020
    1570:	00000020 	.word	0x00000020
    1574:	00000020 	.word	0x00000020
    1578:	000015ce 	.word	0x000015ce

0000157c <add_audio_codec.constprop.7>:
    157c:	e92d45f0 	push	{r4, r5, r6, r7, r8, sl, lr}
    1580:	e24dd064 	sub	sp, sp, #100	; 0x64
    1584:	e3a03000 	mov	r3, #0
    1588:	e2518000 	subs	r8, r1, #0
    158c:	e1a04000 	mov	r4, r0
    1590:	e1a07002 	mov	r7, r2
    1594:	e58d3014 	str	r3, [sp, #20]
    1598:	e58d3018 	str	r3, [sp, #24]
    159c:	e58d301c 	str	r3, [sp, #28]
    15a0:	e58d3020 	str	r3, [sp, #32]
    15a4:	e58d3024 	str	r3, [sp, #36]	; 0x24
    15a8:	e58d3028 	str	r3, [sp, #40]	; 0x28
    15ac:	e58d302c 	str	r3, [sp, #44]	; 0x2c
    15b0:	e58d3030 	str	r3, [sp, #48]	; 0x30
    15b4:	e58d3034 	str	r3, [sp, #52]	; 0x34
    15b8:	e58d3038 	str	r3, [sp, #56]	; 0x38
    15bc:	e58d303c 	str	r3, [sp, #60]	; 0x3c
    15c0:	e58d3040 	str	r3, [sp, #64]	; 0x40
    15c4:	e58d3044 	str	r3, [sp, #68]	; 0x44
    15c8:	e58d3048 	str	r3, [sp, #72]	; 0x48
    15cc:	e58d304c 	str	r3, [sp, #76]	; 0x4c
    15d0:	e58d3050 	str	r3, [sp, #80]	; 0x50
    15d4:	e58d3054 	str	r3, [sp, #84]	; 0x54
    15d8:	e58d3058 	str	r3, [sp, #88]	; 0x58
    15dc:	e58d305c 	str	r3, [sp, #92]	; 0x5c
    15e0:	11a05008 	movne	r5, r8
    15e4:	0a000063 	beq	1778 <add_audio_codec.constprop.7+0x1fc>
    15e8:	e5d43018 	ldrb	r3, [r4, #24]
    15ec:	e1a030a3 	lsr	r3, r3, #1
    15f0:	e3530012 	cmp	r3, #18
    15f4:	83a06000 	movhi	r6, #0
    15f8:	959f2190 	ldrls	r2, [pc, #400]	; 1790 <add_audio_codec.constprop.7+0x214>
    15fc:	908f2002 	addls	r2, pc, r2
    1600:	90823103 	addls	r3, r2, r3, lsl #2
    1604:	959360b8 	ldrls	r6, [r3, #184]	; 0xb8
    1608:	e3580000 	cmp	r8, #0
    160c:	e5948008 	ldr	r8, [r4, #8]
    1610:	1a000005 	bne	162c <add_audio_codec.constprop.7+0xb0>
    1614:	e59f1178 	ldr	r1, [pc, #376]	; 1794 <add_audio_codec.constprop.7+0x218>
    1618:	e1a00008 	mov	r0, r8
    161c:	e08f1001 	add	r1, pc, r1
    1620:	ebfffffe 	bl	0 <strcasecmp>
    1624:	e3500000 	cmp	r0, #0
    1628:	03a0501e 	moveq	r5, #30
    162c:	e5941014 	ldr	r1, [r4, #20]
    1630:	e1a00008 	mov	r0, r8
    1634:	e3510000 	cmp	r1, #0
    1638:	0a000002 	beq	1648 <add_audio_codec.constprop.7+0xcc>
    163c:	e5d13000 	ldrb	r3, [r1]
    1640:	e3530000 	cmp	r3, #0
    1644:	1a00002a 	bne	16f4 <add_audio_codec.constprop.7+0x178>
    1648:	e59f1148 	ldr	r1, [pc, #328]	; 1798 <add_audio_codec.constprop.7+0x21c>
    164c:	e08f1001 	add	r1, pc, r1
    1650:	ebfffffe 	bl	0 <strcasecmp>
    1654:	e3500000 	cmp	r0, #0
    1658:	03a0501e 	moveq	r5, #30
    165c:	059f6138 	ldreq	r6, [pc, #312]	; 179c <add_audio_codec.constprop.7+0x220>
    1660:	0a000006 	beq	1680 <add_audio_codec.constprop.7+0x104>
    1664:	e59f1134 	ldr	r1, [pc, #308]	; 17a0 <add_audio_codec.constprop.7+0x224>
    1668:	e1a00008 	mov	r0, r8
    166c:	e08f1001 	add	r1, pc, r1
    1670:	ebfffffe 	bl	0 <strcasecmp>
    1674:	e3500000 	cmp	r0, #0
    1678:	03a06c7d 	moveq	r6, #32000	; 0x7d00
    167c:	03a0501e 	moveq	r5, #30
    1680:	e594300c 	ldr	r3, [r4, #12]
    1684:	e28d8028 	add	r8, sp, #40	; 0x28
    1688:	e3530000 	cmp	r3, #0
    168c:	1a00002a 	bne	173c <add_audio_codec.constprop.7+0x1c0>
    1690:	e3550000 	cmp	r5, #0
    1694:	e28da014 	add	sl, sp, #20
    1698:	1a00002f 	bne	175c <add_audio_codec.constprop.7+0x1e0>
    169c:	e3560000 	cmp	r6, #0
    16a0:	e28d503c 	add	r5, sp, #60	; 0x3c
    16a4:	0a000005 	beq	16c0 <add_audio_codec.constprop.7+0x144>
    16a8:	e59f20f4 	ldr	r2, [pc, #244]	; 17a4 <add_audio_codec.constprop.7+0x228>
    16ac:	e1a00005 	mov	r0, r5
    16b0:	e3a01014 	mov	r1, #20
    16b4:	e08f2002 	add	r2, pc, r2
    16b8:	e1a03006 	mov	r3, r6
    16bc:	ebfffffe 	bl	0 <switch_snprintf>
    16c0:	e1a00007 	mov	r0, r7
    16c4:	ebfffffe 	bl	0 <strlen>
    16c8:	e59f20d8 	ldr	r2, [pc, #216]	; 17a8 <add_audio_codec.constprop.7+0x22c>
    16cc:	e5943008 	ldr	r3, [r4, #8]
    16d0:	e08f2002 	add	r2, pc, r2
    16d4:	e88d0500 	stm	sp, {r8, sl}
    16d8:	e58d5008 	str	r5, [sp, #8]
    16dc:	e1a01000 	mov	r1, r0
    16e0:	e2611b01 	rsb	r1, r1, #1024	; 0x400
    16e4:	e0870000 	add	r0, r7, r0
    16e8:	ebfffffe 	bl	0 <switch_snprintf>
    16ec:	e28dd064 	add	sp, sp, #100	; 0x64
    16f0:	e8bd85f0 	pop	{r4, r5, r6, r7, r8, sl, pc}
    16f4:	e594200c 	ldr	r2, [r4, #12]
    16f8:	e28d3050 	add	r3, sp, #80	; 0x50
    16fc:	ebfffffe 	bl	0 <switch_core_codec_parse_fmtp>
    1700:	e3500000 	cmp	r0, #0
    1704:	1affffdd 	bne	1680 <add_audio_codec.constprop.7+0x104>
    1708:	e59d3054 	ldr	r3, [sp, #84]	; 0x54
    170c:	e59d2058 	ldr	r2, [sp, #88]	; 0x58
    1710:	e3530000 	cmp	r3, #0
    1714:	11a06003 	movne	r6, r3
    1718:	e3520000 	cmp	r2, #0
    171c:	11a03fc2 	asrne	r3, r2, #31
    1720:	159f5084 	ldrne	r5, [pc, #132]	; 17ac <add_audio_codec.constprop.7+0x230>
    1724:	e28d8028 	add	r8, sp, #40	; 0x28
    1728:	10c51295 	smullne	r1, r5, r5, r2
    172c:	10635345 	rsbne	r5, r3, r5, asr #6
    1730:	e594300c 	ldr	r3, [r4, #12]
    1734:	e3530000 	cmp	r3, #0
    1738:	0affffd4 	beq	1690 <add_audio_codec.constprop.7+0x114>
    173c:	e59f206c 	ldr	r2, [pc, #108]	; 17b0 <add_audio_codec.constprop.7+0x234>
    1740:	e1a00008 	mov	r0, r8
    1744:	e3a01014 	mov	r1, #20
    1748:	e08f2002 	add	r2, pc, r2
    174c:	ebfffffe 	bl	0 <switch_snprintf>
    1750:	e3550000 	cmp	r5, #0
    1754:	e28da014 	add	sl, sp, #20
    1758:	0affffcf 	beq	169c <add_audio_codec.constprop.7+0x120>
    175c:	e59f2050 	ldr	r2, [pc, #80]	; 17b4 <add_audio_codec.constprop.7+0x238>
    1760:	e1a0000a 	mov	r0, sl
    1764:	e3a01014 	mov	r1, #20
    1768:	e08f2002 	add	r2, pc, r2
    176c:	e1a03005 	mov	r3, r5
    1770:	ebfffffe 	bl	0 <switch_snprintf>
    1774:	eaffffc8 	b	169c <add_audio_codec.constprop.7+0x120>
    1778:	e5d01018 	ldrb	r1, [r0, #24]
    177c:	e5900008 	ldr	r0, [r0, #8]
    1780:	e1a010a1 	lsr	r1, r1, #1
    1784:	ebfffffe 	bl	0 <switch_default_ptime>
    1788:	e1a05000 	mov	r5, r0
    178c:	eaffff95 	b	15e8 <add_audio_codec.constprop.7+0x6c>
    1790:	0000018c 	.word	0x0000018c
    1794:	00000170 	.word	0x00000170
    1798:	00000144 	.word	0x00000144
    179c:	00003412 	.word	0x00003412
    17a0:	0000012c 	.word	0x0000012c
    17a4:	000000e8 	.word	0x000000e8
    17a8:	000000d0 	.word	0x000000d0
    17ac:	10624dd3 	.word	0x10624dd3
    17b0:	00000060 	.word	0x00000060
    17b4:	00000044 	.word	0x00000044

000017b8 <get_channels>:
    17b8:	e92d4070 	push	{r4, r5, r6, lr}
    17bc:	e1a05000 	mov	r5, r0
    17c0:	e59f0108 	ldr	r0, [pc, #264]	; 18d0 <get_channels+0x118>
    17c4:	e1a04001 	mov	r4, r1
    17c8:	e08f0000 	add	r0, pc, r0
    17cc:	ebfffffe 	bl	0 <switch_core_get_variable>
    17d0:	e2506000 	subs	r6, r0, #0
    17d4:	0a000032 	beq	18a4 <get_channels+0xec>
    17d8:	e59f10f4 	ldr	r1, [pc, #244]	; 18d4 <get_channels+0x11c>
    17dc:	e08f1001 	add	r1, pc, r1
    17e0:	ebfffffe 	bl	0 <strcasecmp>
    17e4:	e3500000 	cmp	r0, #0
    17e8:	0a000034 	beq	18c0 <get_channels+0x108>
    17ec:	e59f10e4 	ldr	r1, [pc, #228]	; 18d8 <get_channels+0x120>
    17f0:	e1a00006 	mov	r0, r6
    17f4:	e08f1001 	add	r1, pc, r1
    17f8:	ebfffffe 	bl	0 <strcasecmp>
    17fc:	e3500000 	cmp	r0, #0
    1800:	0a00002e 	beq	18c0 <get_channels+0x108>
    1804:	e59f10d0 	ldr	r1, [pc, #208]	; 18dc <get_channels+0x124>
    1808:	e1a00006 	mov	r0, r6
    180c:	e08f1001 	add	r1, pc, r1
    1810:	ebfffffe 	bl	0 <strcasecmp>
    1814:	e3500000 	cmp	r0, #0
    1818:	0a000028 	beq	18c0 <get_channels+0x108>
    181c:	e59f10bc 	ldr	r1, [pc, #188]	; 18e0 <get_channels+0x128>
    1820:	e1a00006 	mov	r0, r6
    1824:	e08f1001 	add	r1, pc, r1
    1828:	ebfffffe 	bl	0 <strcasecmp>
    182c:	e3500000 	cmp	r0, #0
    1830:	0a000022 	beq	18c0 <get_channels+0x108>
    1834:	e59f10a8 	ldr	r1, [pc, #168]	; 18e4 <get_channels+0x12c>
    1838:	e1a00006 	mov	r0, r6
    183c:	e08f1001 	add	r1, pc, r1
    1840:	ebfffffe 	bl	0 <strcasecmp>
    1844:	e3500000 	cmp	r0, #0
    1848:	0a00001c 	beq	18c0 <get_channels+0x108>
    184c:	e59f1094 	ldr	r1, [pc, #148]	; 18e8 <get_channels+0x130>
    1850:	e1a00006 	mov	r0, r6
    1854:	e08f1001 	add	r1, pc, r1
    1858:	ebfffffe 	bl	0 <strcasecmp>
    185c:	e3500000 	cmp	r0, #0
    1860:	0a000016 	beq	18c0 <get_channels+0x108>
    1864:	e59f1080 	ldr	r1, [pc, #128]	; 18ec <get_channels+0x134>
    1868:	e1a00006 	mov	r0, r6
    186c:	e08f1001 	add	r1, pc, r1
    1870:	ebfffffe 	bl	0 <strcasecmp>
    1874:	e3500000 	cmp	r0, #0
    1878:	0a000010 	beq	18c0 <get_channels+0x108>
    187c:	e1a00006 	mov	r0, r6
    1880:	ebfffffe 	bl	0 <switch_is_number>
    1884:	e3500000 	cmp	r0, #0
    1888:	0a000005 	beq	18a4 <get_channels+0xec>
    188c:	e1a00006 	mov	r0, r6
    1890:	e3a01000 	mov	r1, #0
    1894:	e3a0200a 	mov	r2, #10
    1898:	ebfffffe 	bl	0 <strtol>
    189c:	e3500000 	cmp	r0, #0
    18a0:	1a000006 	bne	18c0 <get_channels+0x108>
    18a4:	e59f1044 	ldr	r1, [pc, #68]	; 18f0 <get_channels+0x138>
    18a8:	e1a00005 	mov	r0, r5
    18ac:	e08f1001 	add	r1, pc, r1
    18b0:	ebfffffe 	bl	0 <strcasecmp>
    18b4:	e3500000 	cmp	r0, #0
    18b8:	03a04002 	moveq	r4, #2
    18bc:	0a000001 	beq	18c8 <get_channels+0x110>
    18c0:	e3540000 	cmp	r4, #0
    18c4:	03a04001 	moveq	r4, #1
    18c8:	e1a00004 	mov	r0, r4
    18cc:	e8bd8070 	pop	{r4, r5, r6, pc}
    18d0:	00000100 	.word	0x00000100
    18d4:	000000f0 	.word	0x000000f0
    18d8:	000000dc 	.word	0x000000dc
    18dc:	000000c8 	.word	0x000000c8
    18e0:	000000b4 	.word	0x000000b4
    18e4:	000000a0 	.word	0x000000a0
    18e8:	0000008c 	.word	0x0000008c
    18ec:	00000078 	.word	0x00000078
    18f0:	0000003c 	.word	0x0000003c

000018f4 <switch_core_media_build_crypto.constprop.8>:
    18f4:	e92d4ff0 	push	{r4, r5, r6, r7, r8, r9, sl, fp, lr}
    18f8:	e3a0c000 	mov	ip, #0
    18fc:	e24ddf8b 	sub	sp, sp, #556	; 0x22c
    1900:	e1a05000 	mov	r5, r0
    1904:	e1a09001 	mov	r9, r1
    1908:	e1a0b002 	mov	fp, r2
    190c:	e28d002c 	add	r0, sp, #44	; 0x2c
    1910:	e1a0100c 	mov	r1, ip
    1914:	e3a02f7f 	mov	r2, #508	; 0x1fc
    1918:	e1a04003 	mov	r4, r3
    191c:	e58dc028 	str	ip, [sp, #40]	; 0x28
    1920:	ebfffffe 	bl	0 <memset>
    1924:	e3550000 	cmp	r5, #0
    1928:	0a0000c4 	beq	1c40 <switch_core_media_build_crypto.constprop.8+0x34c>
    192c:	e5950000 	ldr	r0, [r5]
    1930:	ebfffffe 	bl	0 <switch_core_session_get_channel>
    1934:	e59f8328 	ldr	r8, [pc, #808]	; 1c64 <switch_core_media_build_crypto.constprop.8+0x370>
    1938:	e59d3250 	ldr	r3, [sp, #592]	; 0x250
    193c:	e1a06184 	lsl	r6, r4, #3
    1940:	e0285998 	mla	r8, r8, r9, r5
    1944:	e3530000 	cmp	r3, #0
    1948:	e2888050 	add	r8, r8, #80	; 0x50
    194c:	e58d0024 	str	r0, [sp, #36]	; 0x24
    1950:	1a000004 	bne	1968 <switch_core_media_build_crypto.constprop.8+0x74>
    1954:	e0863004 	add	r3, r6, r4
    1958:	e0883203 	add	r3, r8, r3, lsl #4
    195c:	e5d33004 	ldrb	r3, [r3, #4]
    1960:	e3530000 	cmp	r3, #0
    1964:	1a000064 	bne	1afc <switch_core_media_build_crypto.constprop.8+0x208>
    1968:	e1a0c084 	lsl	ip, r4, #1
    196c:	e59f32f4 	ldr	r3, [pc, #756]	; 1c68 <switch_core_media_build_crypto.constprop.8+0x374>
    1970:	e08c2004 	add	r2, ip, r4
    1974:	e08f3003 	add	r3, pc, r3
    1978:	e0833102 	add	r3, r3, r2, lsl #2
    197c:	e0867004 	add	r7, r6, r4
    1980:	e5933008 	ldr	r3, [r3, #8]
    1984:	e0887207 	add	r7, r8, r7, lsl #4
    1988:	e2877004 	add	r7, r7, #4
    198c:	e1a01003 	mov	r1, r3
    1990:	e1a00007 	mov	r0, r7
    1994:	e58dc01c 	str	ip, [sp, #28]
    1998:	e58d3020 	str	r3, [sp, #32]
    199c:	ebfffffe 	bl	0 <switch_rtp_get_random>
    19a0:	e59d3020 	ldr	r3, [sp, #32]
    19a4:	e28da028 	add	sl, sp, #40	; 0x28
    19a8:	e1a01003 	mov	r1, r3
    19ac:	e1a0200a 	mov	r2, sl
    19b0:	e3a03c02 	mov	r3, #512	; 0x200
    19b4:	e1a00007 	mov	r0, r7
    19b8:	ebfffffe 	bl	0 <switch_b64_encode>
    19bc:	e1a0000a 	mov	r0, sl
    19c0:	e3a0103d 	mov	r1, #61	; 0x3d
    19c4:	ebfffffe 	bl	0 <strrchr>
    19c8:	e59dc01c 	ldr	ip, [sp, #28]
    19cc:	e2503000 	subs	r3, r0, #0
    19d0:	0a00000c 	beq	1a08 <switch_core_media_build_crypto.constprop.8+0x114>
    19d4:	e5d32000 	ldrb	r2, [r3]
    19d8:	e352003d 	cmp	r2, #61	; 0x3d
    19dc:	1a000009 	bne	1a08 <switch_core_media_build_crypto.constprop.8+0x114>
    19e0:	e2433001 	sub	r3, r3, #1
    19e4:	e3a01000 	mov	r1, #0
    19e8:	ea000003 	b	19fc <switch_core_media_build_crypto.constprop.8+0x108>
    19ec:	e5d32000 	ldrb	r2, [r3]
    19f0:	e2433001 	sub	r3, r3, #1
    19f4:	e352003d 	cmp	r2, #61	; 0x3d
    19f8:	1a000002 	bne	1a08 <switch_core_media_build_crypto.constprop.8+0x114>
    19fc:	e3530000 	cmp	r3, #0
    1a00:	e5c31001 	strb	r1, [r3, #1]
    1a04:	1afffff8 	bne	19ec <switch_core_media_build_crypto.constprop.8+0xf8>
    1a08:	e59f325c 	ldr	r3, [pc, #604]	; 1c6c <switch_core_media_build_crypto.constprop.8+0x378>
    1a0c:	e35b0000 	cmp	fp, #0
    1a10:	e08cc004 	add	ip, ip, r4
    1a14:	e08f3003 	add	r3, pc, r3
    1a18:	e59f1250 	ldr	r1, [pc, #592]	; 1c70 <switch_core_media_build_crypto.constprop.8+0x37c>
    1a1c:	0284b001 	addeq	fp, r4, #1
    1a20:	e793310c 	ldr	r3, [r3, ip, lsl #2]
    1a24:	e5950000 	ldr	r0, [r5]
    1a28:	e1a0200b 	mov	r2, fp
    1a2c:	e08f1001 	add	r1, pc, r1
    1a30:	e58da000 	str	sl, [sp]
    1a34:	ebfffffe 	bl	0 <switch_core_session_sprintf>
    1a38:	e0862004 	add	r2, r6, r4
    1a3c:	e5953000 	ldr	r3, [r5]
    1a40:	e0882202 	add	r2, r8, r2, lsl #4
    1a44:	e3590001 	cmp	r9, #1
    1a48:	e593c018 	ldr	ip, [r3, #24]
    1a4c:	e5820088 	str	r0, [r2, #136]	; 0x88
    1a50:	0a00006b 	beq	1c04 <switch_core_media_build_crypto.constprop.8+0x310>
    1a54:	e59f7218 	ldr	r7, [pc, #536]	; 1c74 <switch_core_media_build_crypto.constprop.8+0x380>
    1a58:	e59f2218 	ldr	r2, [pc, #536]	; 1c78 <switch_core_media_build_crypto.constprop.8+0x384>
    1a5c:	e08f7007 	add	r7, pc, r7
    1a60:	e1a01000 	mov	r1, r0
    1a64:	e08f2002 	add	r2, pc, r2
    1a68:	e1a03007 	mov	r3, r7
    1a6c:	e1a0000c 	mov	r0, ip
    1a70:	ebfffffe 	bl	0 <switch_channel_set_variable_name_printf>
    1a74:	e5953000 	ldr	r3, [r5]
    1a78:	e3a02001 	mov	r2, #1
    1a7c:	e3a0105c 	mov	r1, #92	; 0x5c
    1a80:	e5930018 	ldr	r0, [r3, #24]
    1a84:	ebfffffe 	bl	0 <switch_channel_set_flag_value>
    1a88:	e5952000 	ldr	r2, [r5]
    1a8c:	e58d2000 	str	r2, [sp]
    1a90:	e3a02007 	mov	r2, #7
    1a94:	e58d2004 	str	r2, [sp, #4]
    1a98:	e59f21dc 	ldr	r2, [pc, #476]	; 1c7c <switch_core_media_build_crypto.constprop.8+0x388>
    1a9c:	e0863004 	add	r3, r6, r4
    1aa0:	e08f2002 	add	r2, pc, r2
    1aa4:	e58d2008 	str	r2, [sp, #8]
    1aa8:	e0883203 	add	r3, r8, r3, lsl #4
    1aac:	e59f21cc 	ldr	r2, [pc, #460]	; 1c80 <switch_core_media_build_crypto.constprop.8+0x38c>
    1ab0:	e59f11cc 	ldr	r1, [pc, #460]	; 1c84 <switch_core_media_build_crypto.constprop.8+0x390>
    1ab4:	e58d700c 	str	r7, [sp, #12]
    1ab8:	e08f2002 	add	r2, pc, r2
    1abc:	e593c088 	ldr	ip, [r3, #136]	; 0x88
    1ac0:	e3a00003 	mov	r0, #3
    1ac4:	e3a03fe5 	mov	r3, #916	; 0x394
    1ac8:	e08f1001 	add	r1, pc, r1
    1acc:	e2822f49 	add	r2, r2, #292	; 0x124
    1ad0:	e58dc010 	str	ip, [sp, #16]
    1ad4:	ebfffffe 	bl	0 <switch_log_printf>
    1ad8:	e59f31a8 	ldr	r3, [pc, #424]	; 1c88 <switch_core_media_build_crypto.constprop.8+0x394>
    1adc:	e7953003 	ldr	r3, [r5, r3]
    1ae0:	e5933010 	ldr	r3, [r3, #16]
    1ae4:	e3130008 	tst	r3, #8
    1ae8:	0a000006 	beq	1b08 <switch_core_media_build_crypto.constprop.8+0x214>
    1aec:	e0864004 	add	r4, r6, r4
    1af0:	e3a03008 	mov	r3, #8
    1af4:	e0888204 	add	r8, r8, r4, lsl #4
    1af8:	e5883084 	str	r3, [r8, #132]	; 0x84
    1afc:	e3a00000 	mov	r0, #0
    1b00:	e28ddf8b 	add	sp, sp, #556	; 0x22c
    1b04:	e8bd8ff0 	pop	{r4, r5, r6, r7, r8, r9, sl, fp, pc}
    1b08:	e59f117c 	ldr	r1, [pc, #380]	; 1c8c <switch_core_media_build_crypto.constprop.8+0x398>
    1b0c:	e59d0024 	ldr	r0, [sp, #36]	; 0x24
    1b10:	e08f1001 	add	r1, pc, r1
    1b14:	e3a02001 	mov	r2, #1
    1b18:	e3e03000 	mvn	r3, #0
    1b1c:	ebfffffe 	bl	0 <switch_channel_get_variable_dup>
    1b20:	e2505000 	subs	r5, r0, #0
    1b24:	0a000032 	beq	1bf4 <switch_core_media_build_crypto.constprop.8+0x300>
    1b28:	e59f1160 	ldr	r1, [pc, #352]	; 1c90 <switch_core_media_build_crypto.constprop.8+0x39c>
    1b2c:	e08f1001 	add	r1, pc, r1
    1b30:	ebfffffe 	bl	0 <strcasecmp>
    1b34:	e3500000 	cmp	r0, #0
    1b38:	0affffeb 	beq	1aec <switch_core_media_build_crypto.constprop.8+0x1f8>
    1b3c:	e59f1150 	ldr	r1, [pc, #336]	; 1c94 <switch_core_media_build_crypto.constprop.8+0x3a0>
    1b40:	e1a00005 	mov	r0, r5
    1b44:	e08f1001 	add	r1, pc, r1
    1b48:	ebfffffe 	bl	0 <strcasecmp>
    1b4c:	e3500000 	cmp	r0, #0
    1b50:	0affffe5 	beq	1aec <switch_core_media_build_crypto.constprop.8+0x1f8>
    1b54:	e59f113c 	ldr	r1, [pc, #316]	; 1c98 <switch_core_media_build_crypto.constprop.8+0x3a4>
    1b58:	e1a00005 	mov	r0, r5
    1b5c:	e08f1001 	add	r1, pc, r1
    1b60:	ebfffffe 	bl	0 <strcasecmp>
    1b64:	e3500000 	cmp	r0, #0
    1b68:	0affffdf 	beq	1aec <switch_core_media_build_crypto.constprop.8+0x1f8>
    1b6c:	e59f1128 	ldr	r1, [pc, #296]	; 1c9c <switch_core_media_build_crypto.constprop.8+0x3a8>
    1b70:	e1a00005 	mov	r0, r5
    1b74:	e08f1001 	add	r1, pc, r1
    1b78:	ebfffffe 	bl	0 <strcasecmp>
    1b7c:	e3500000 	cmp	r0, #0
    1b80:	0affffd9 	beq	1aec <switch_core_media_build_crypto.constprop.8+0x1f8>
    1b84:	e59f1114 	ldr	r1, [pc, #276]	; 1ca0 <switch_core_media_build_crypto.constprop.8+0x3ac>
    1b88:	e1a00005 	mov	r0, r5
    1b8c:	e08f1001 	add	r1, pc, r1
    1b90:	ebfffffe 	bl	0 <strcasecmp>
    1b94:	e3500000 	cmp	r0, #0
    1b98:	0affffd3 	beq	1aec <switch_core_media_build_crypto.constprop.8+0x1f8>
    1b9c:	e59f1100 	ldr	r1, [pc, #256]	; 1ca4 <switch_core_media_build_crypto.constprop.8+0x3b0>
    1ba0:	e1a00005 	mov	r0, r5
    1ba4:	e08f1001 	add	r1, pc, r1
    1ba8:	ebfffffe 	bl	0 <strcasecmp>
    1bac:	e3500000 	cmp	r0, #0
    1bb0:	0affffcd 	beq	1aec <switch_core_media_build_crypto.constprop.8+0x1f8>
    1bb4:	e59f10ec 	ldr	r1, [pc, #236]	; 1ca8 <switch_core_media_build_crypto.constprop.8+0x3b4>
    1bb8:	e1a00005 	mov	r0, r5
    1bbc:	e08f1001 	add	r1, pc, r1
    1bc0:	ebfffffe 	bl	0 <strcasecmp>
    1bc4:	e3500000 	cmp	r0, #0
    1bc8:	0affffc7 	beq	1aec <switch_core_media_build_crypto.constprop.8+0x1f8>
    1bcc:	e1a00005 	mov	r0, r5
    1bd0:	ebfffffe 	bl	0 <switch_is_number>
    1bd4:	e3500000 	cmp	r0, #0
    1bd8:	0a000005 	beq	1bf4 <switch_core_media_build_crypto.constprop.8+0x300>
    1bdc:	e1a00005 	mov	r0, r5
    1be0:	e3a01000 	mov	r1, #0
    1be4:	e3a0200a 	mov	r2, #10
    1be8:	ebfffffe 	bl	0 <strtol>
    1bec:	e3500000 	cmp	r0, #0
    1bf0:	1affffbd 	bne	1aec <switch_core_media_build_crypto.constprop.8+0x1f8>
    1bf4:	e0866004 	add	r6, r6, r4
    1bf8:	e0888206 	add	r8, r8, r6, lsl #4
    1bfc:	e5884084 	str	r4, [r8, #132]	; 0x84
    1c00:	eaffffbd 	b	1afc <switch_core_media_build_crypto.constprop.8+0x208>
    1c04:	e59f70a0 	ldr	r7, [pc, #160]	; 1cac <switch_core_media_build_crypto.constprop.8+0x3b8>
    1c08:	e59f20a0 	ldr	r2, [pc, #160]	; 1cb0 <switch_core_media_build_crypto.constprop.8+0x3bc>
    1c0c:	e08f7007 	add	r7, pc, r7
    1c10:	e1a01000 	mov	r1, r0
    1c14:	e08f2002 	add	r2, pc, r2
    1c18:	e1a03007 	mov	r3, r7
    1c1c:	e1a0000c 	mov	r0, ip
    1c20:	ebfffffe 	bl	0 <switch_channel_set_variable_name_printf>
    1c24:	e5953000 	ldr	r3, [r5]
    1c28:	e1a02009 	mov	r2, r9
    1c2c:	e3a0105c 	mov	r1, #92	; 0x5c
    1c30:	e5930018 	ldr	r0, [r3, #24]
    1c34:	ebfffffe 	bl	0 <switch_channel_set_flag_value>
    1c38:	e5952000 	ldr	r2, [r5]
    1c3c:	eaffff92 	b	1a8c <switch_core_media_build_crypto.constprop.8+0x198>
    1c40:	e59f306c 	ldr	r3, [pc, #108]	; 1cb4 <switch_core_media_build_crypto.constprop.8+0x3c0>
    1c44:	e59f006c 	ldr	r0, [pc, #108]	; 1cb8 <switch_core_media_build_crypto.constprop.8+0x3c4>
    1c48:	e59f106c 	ldr	r1, [pc, #108]	; 1cbc <switch_core_media_build_crypto.constprop.8+0x3c8>
    1c4c:	e08f3003 	add	r3, pc, r3
    1c50:	e08f0000 	add	r0, pc, r0
    1c54:	e08f1001 	add	r1, pc, r1
    1c58:	e59f2060 	ldr	r2, [pc, #96]	; 1cc0 <switch_core_media_build_crypto.constprop.8+0x3cc>
    1c5c:	e2833f41 	add	r3, r3, #260	; 0x104
    1c60:	ebfffffe 	bl	0 <__assert_fail>
    1c64:	00002c98 	.word	0x00002c98
    1c68:	000002ec 	.word	0x000002ec
    1c6c:	00000250 	.word	0x00000250
    1c70:	0000023c 	.word	0x0000023c
    1c74:	00000210 	.word	0x00000210
    1c78:	0000020c 	.word	0x0000020c
    1c7c:	000001d4 	.word	0x000001d4
    1c80:	000001c0 	.word	0x000001c0
    1c84:	000001b4 	.word	0x000001b4
    1c88:	00005cf8 	.word	0x00005cf8
    1c8c:	00000174 	.word	0x00000174
    1c90:	0000015c 	.word	0x0000015c
    1c94:	00000148 	.word	0x00000148
    1c98:	00000134 	.word	0x00000134
    1c9c:	00000120 	.word	0x00000120
    1ca0:	0000010c 	.word	0x0000010c
    1ca4:	000000f8 	.word	0x000000f8
    1ca8:	000000e4 	.word	0x000000e4
    1cac:	00000098 	.word	0x00000098
    1cb0:	00000094 	.word	0x00000094
    1cb4:	00000060 	.word	0x00000060
    1cb8:	00000060 	.word	0x00000060
    1cbc:	00000060 	.word	0x00000060
    1cc0:	00000365 	.word	0x00000365

00001cc4 <switch_core_session_parse_crypto_prefs>:
    1cc4:	e59f34cc 	ldr	r3, [pc, #1228]	; 2198 <switch_core_session_parse_crypto_prefs+0x4d4>
    1cc8:	e92d4ff0 	push	{r4, r5, r6, r7, r8, r9, sl, fp, lr}
    1ccc:	e1a05000 	mov	r5, r0
    1cd0:	e7906003 	ldr	r6, [r0, r3]
    1cd4:	e24dd04c 	sub	sp, sp, #76	; 0x4c
    1cd8:	e3560000 	cmp	r6, #0
    1cdc:	0a000004 	beq	1cf4 <switch_core_session_parse_crypto_prefs+0x30>
    1ce0:	e5900018 	ldr	r0, [r0, #24]
    1ce4:	e3a0106a 	mov	r1, #106	; 0x6a
    1ce8:	ebfffffe 	bl	0 <switch_channel_test_flag>
    1cec:	e3500000 	cmp	r0, #0
    1cf0:	0a000001 	beq	1cfc <switch_core_session_parse_crypto_prefs+0x38>
    1cf4:	e28dd04c 	add	sp, sp, #76	; 0x4c
    1cf8:	e8bd8ff0 	pop	{r4, r5, r6, r7, r8, r9, sl, fp, pc}
    1cfc:	e5950018 	ldr	r0, [r5, #24]
    1d00:	ebfffffe 	bl	0 <switch_channel_direction>
    1d04:	e59f8490 	ldr	r8, [pc, #1168]	; 219c <switch_core_session_parse_crypto_prefs+0x4d8>
    1d08:	e08f8008 	add	r8, pc, r8
    1d0c:	e3500000 	cmp	r0, #0
    1d10:	1a000064 	bne	1ea8 <switch_core_session_parse_crypto_prefs+0x1e4>
    1d14:	e5950018 	ldr	r0, [r5, #24]
    1d18:	e1a01008 	mov	r1, r8
    1d1c:	e3a02001 	mov	r2, #1
    1d20:	e3e03000 	mvn	r3, #0
    1d24:	ebfffffe 	bl	0 <switch_channel_get_variable_dup>
    1d28:	e2504000 	subs	r4, r0, #0
    1d2c:	0a0000ee 	beq	20ec <switch_core_session_parse_crypto_prefs+0x428>
    1d30:	e5d43000 	ldrb	r3, [r4]
    1d34:	e3530000 	cmp	r3, #0
    1d38:	0a00000c 	beq	1d70 <switch_core_session_parse_crypto_prefs+0xac>
    1d3c:	e1a00004 	mov	r0, r4
    1d40:	e3a0103a 	mov	r1, #58	; 0x3a
    1d44:	ebfffffe 	bl	0 <strchr>
    1d48:	e3500000 	cmp	r0, #0
    1d4c:	0a000007 	beq	1d70 <switch_core_session_parse_crypto_prefs+0xac>
    1d50:	e1a07000 	mov	r7, r0
    1d54:	e3a03000 	mov	r3, #0
    1d58:	e4c73001 	strb	r3, [r7], #1
    1d5c:	e1570003 	cmp	r7, r3
    1d60:	0a000002 	beq	1d70 <switch_core_session_parse_crypto_prefs+0xac>
    1d64:	e5d03001 	ldrb	r3, [r0, #1]
    1d68:	e3530000 	cmp	r3, #0
    1d6c:	1a000006 	bne	1d8c <switch_core_session_parse_crypto_prefs+0xc8>
    1d70:	e59f1428 	ldr	r1, [pc, #1064]	; 21a0 <switch_core_session_parse_crypto_prefs+0x4dc>
    1d74:	e5950018 	ldr	r0, [r5, #24]
    1d78:	e08f1001 	add	r1, pc, r1
    1d7c:	e3a02001 	mov	r2, #1
    1d80:	e3e03000 	mvn	r3, #0
    1d84:	ebfffffe 	bl	0 <switch_channel_get_variable_dup>
    1d88:	e1a07000 	mov	r7, r0
    1d8c:	e3540000 	cmp	r4, #0
    1d90:	0a000002 	beq	1da0 <switch_core_session_parse_crypto_prefs+0xdc>
    1d94:	e5d43000 	ldrb	r3, [r4]
    1d98:	e3530000 	cmp	r3, #0
    1d9c:	1a000005 	bne	1db8 <switch_core_session_parse_crypto_prefs+0xf4>
    1da0:	e5950018 	ldr	r0, [r5, #24]
    1da4:	ebfffffe 	bl	0 <switch_channel_direction>
    1da8:	e59f43f4 	ldr	r4, [pc, #1012]	; 21a4 <switch_core_session_parse_crypto_prefs+0x4e0>
    1dac:	e08f4004 	add	r4, pc, r4
    1db0:	e3500000 	cmp	r0, #0
    1db4:	0a0000c3 	beq	20c8 <switch_core_session_parse_crypto_prefs+0x404>
    1db8:	e59f13e8 	ldr	r1, [pc, #1000]	; 21a8 <switch_core_session_parse_crypto_prefs+0x4e4>
    1dbc:	e1a00004 	mov	r0, r4
    1dc0:	e08f1001 	add	r1, pc, r1
    1dc4:	ebfffffe 	bl	0 <strcasecmp>
    1dc8:	e3500000 	cmp	r0, #0
    1dcc:	059f33d8 	ldreq	r3, [pc, #984]	; 21ac <switch_core_session_parse_crypto_prefs+0x4e8>
    1dd0:	07860003 	streq	r0, [r6, r3]
    1dd4:	1a000036 	bne	1eb4 <switch_core_session_parse_crypto_prefs+0x1f0>
    1dd8:	e3570000 	cmp	r7, #0
    1ddc:	0a000099 	beq	2048 <switch_core_session_parse_crypto_prefs+0x384>
    1de0:	e5d73000 	ldrb	r3, [r7]
    1de4:	e3530000 	cmp	r3, #0
    1de8:	0a000096 	beq	2048 <switch_core_session_parse_crypto_prefs+0x384>
    1dec:	e1a00007 	mov	r0, r7
    1df0:	e3a0103a 	mov	r1, #58	; 0x3a
    1df4:	e28d2020 	add	r2, sp, #32
    1df8:	e3a0300a 	mov	r3, #10
    1dfc:	ebfffffe 	bl	0 <switch_separate_string>
    1e00:	e3500000 	cmp	r0, #0
    1e04:	e58d0014 	str	r0, [sp, #20]
    1e08:	daffffb9 	ble	1cf4 <switch_core_session_parse_crypto_prefs+0x30>
    1e0c:	e3a03000 	mov	r3, #0
    1e10:	e58d3018 	str	r3, [sp, #24]
    1e14:	e1a07003 	mov	r7, r3
    1e18:	e59f4390 	ldr	r4, [pc, #912]	; 21b0 <switch_core_session_parse_crypto_prefs+0x4ec>
    1e1c:	e59f3390 	ldr	r3, [pc, #912]	; 21b4 <switch_core_session_parse_crypto_prefs+0x4f0>
    1e20:	e28d801c 	add	r8, sp, #28
    1e24:	e08f3003 	add	r3, pc, r3
    1e28:	e08f4004 	add	r4, pc, r4
    1e2c:	e2833f51 	add	r3, r3, #324	; 0x144
    1e30:	e58d301c 	str	r3, [sp, #28]
    1e34:	e3a0a000 	mov	sl, #0
    1e38:	e5b8b004 	ldr	fp, [r8, #4]!
    1e3c:	e1a0900a 	mov	r9, sl
    1e40:	e794100a 	ldr	r1, [r4, sl]
    1e44:	e1a0000b 	mov	r0, fp
    1e48:	ebfffffe 	bl	0 <strcasecmp>
    1e4c:	e28aa00c 	add	sl, sl, #12
    1e50:	e3500000 	cmp	r0, #0
    1e54:	0a000087 	beq	2078 <switch_core_session_parse_crypto_prefs+0x3b4>
    1e58:	e2899001 	add	r9, r9, #1
    1e5c:	e3590009 	cmp	r9, #9
    1e60:	1afffff6 	bne	1e40 <switch_core_session_parse_crypto_prefs+0x17c>
    1e64:	e3a0c004 	mov	ip, #4
    1e68:	e59f1348 	ldr	r1, [pc, #840]	; 21b8 <switch_core_session_parse_crypto_prefs+0x4f4>
    1e6c:	e58dc004 	str	ip, [sp, #4]
    1e70:	e59fc344 	ldr	ip, [pc, #836]	; 21bc <switch_core_session_parse_crypto_prefs+0x4f8>
    1e74:	e3a00003 	mov	r0, #3
    1e78:	e08fc00c 	add	ip, pc, ip
    1e7c:	e08f1001 	add	r1, pc, r1
    1e80:	e59d201c 	ldr	r2, [sp, #28]
    1e84:	e59f3334 	ldr	r3, [pc, #820]	; 21c0 <switch_core_session_parse_crypto_prefs+0x4fc>
    1e88:	e58d5000 	str	r5, [sp]
    1e8c:	e58dc008 	str	ip, [sp, #8]
    1e90:	ebfffffe 	bl	0 <switch_log_printf>
    1e94:	e59d2014 	ldr	r2, [sp, #20]
    1e98:	e2877001 	add	r7, r7, #1
    1e9c:	e1520007 	cmp	r2, r7
    1ea0:	1affffe3 	bne	1e34 <switch_core_session_parse_crypto_prefs+0x170>
    1ea4:	eaffff92 	b	1cf4 <switch_core_session_parse_crypto_prefs+0x30>
    1ea8:	e59f8314 	ldr	r8, [pc, #788]	; 21c4 <switch_core_session_parse_crypto_prefs+0x500>
    1eac:	e08f8008 	add	r8, pc, r8
    1eb0:	eaffff97 	b	1d14 <switch_core_session_parse_crypto_prefs+0x50>
    1eb4:	e59f130c 	ldr	r1, [pc, #780]	; 21c8 <switch_core_session_parse_crypto_prefs+0x504>
    1eb8:	e1a00004 	mov	r0, r4
    1ebc:	e08f1001 	add	r1, pc, r1
    1ec0:	ebfffffe 	bl	0 <strcasecmp>
    1ec4:	e3500000 	cmp	r0, #0
    1ec8:	0a00007a 	beq	20b8 <switch_core_session_parse_crypto_prefs+0x3f4>
    1ecc:	e59f12f8 	ldr	r1, [pc, #760]	; 21cc <switch_core_session_parse_crypto_prefs+0x508>
    1ed0:	e1a00004 	mov	r0, r4
    1ed4:	e08f1001 	add	r1, pc, r1
    1ed8:	ebfffffe 	bl	0 <strcasecmp>
    1edc:	e3500000 	cmp	r0, #0
    1ee0:	0a000074 	beq	20b8 <switch_core_session_parse_crypto_prefs+0x3f4>
    1ee4:	e59f12e4 	ldr	r1, [pc, #740]	; 21d0 <switch_core_session_parse_crypto_prefs+0x50c>
    1ee8:	e1a00004 	mov	r0, r4
    1eec:	e08f1001 	add	r1, pc, r1
    1ef0:	ebfffffe 	bl	0 <strcasecmp>
    1ef4:	e3500000 	cmp	r0, #0
    1ef8:	0a00006e 	beq	20b8 <switch_core_session_parse_crypto_prefs+0x3f4>
    1efc:	e59f12d0 	ldr	r1, [pc, #720]	; 21d4 <switch_core_session_parse_crypto_prefs+0x510>
    1f00:	e1a00004 	mov	r0, r4
    1f04:	e08f1001 	add	r1, pc, r1
    1f08:	ebfffffe 	bl	0 <strcasecmp>
    1f0c:	e3500000 	cmp	r0, #0
    1f10:	0a000068 	beq	20b8 <switch_core_session_parse_crypto_prefs+0x3f4>
    1f14:	e59f12bc 	ldr	r1, [pc, #700]	; 21d8 <switch_core_session_parse_crypto_prefs+0x514>
    1f18:	e1a00004 	mov	r0, r4
    1f1c:	e08f1001 	add	r1, pc, r1
    1f20:	ebfffffe 	bl	0 <strcasecmp>
    1f24:	e3500000 	cmp	r0, #0
    1f28:	0a000062 	beq	20b8 <switch_core_session_parse_crypto_prefs+0x3f4>
    1f2c:	e59f12a8 	ldr	r1, [pc, #680]	; 21dc <switch_core_session_parse_crypto_prefs+0x518>
    1f30:	e1a00004 	mov	r0, r4
    1f34:	e08f1001 	add	r1, pc, r1
    1f38:	ebfffffe 	bl	0 <strcasecmp>
    1f3c:	e3500000 	cmp	r0, #0
    1f40:	0a00005c 	beq	20b8 <switch_core_session_parse_crypto_prefs+0x3f4>
    1f44:	e59f1294 	ldr	r1, [pc, #660]	; 21e0 <switch_core_session_parse_crypto_prefs+0x51c>
    1f48:	e1a00004 	mov	r0, r4
    1f4c:	e08f1001 	add	r1, pc, r1
    1f50:	ebfffffe 	bl	0 <strcasecmp>
    1f54:	e3500000 	cmp	r0, #0
    1f58:	0a000056 	beq	20b8 <switch_core_session_parse_crypto_prefs+0x3f4>
    1f5c:	e1a00004 	mov	r0, r4
    1f60:	ebfffffe 	bl	0 <switch_is_number>
    1f64:	e3500000 	cmp	r0, #0
    1f68:	1a00004c 	bne	20a0 <switch_core_session_parse_crypto_prefs+0x3dc>
    1f6c:	e59f1270 	ldr	r1, [pc, #624]	; 21e4 <switch_core_session_parse_crypto_prefs+0x520>
    1f70:	e1a00004 	mov	r0, r4
    1f74:	e08f1001 	add	r1, pc, r1
    1f78:	ebfffffe 	bl	0 <strcasecmp>
    1f7c:	e3500000 	cmp	r0, #0
    1f80:	0a00004c 	beq	20b8 <switch_core_session_parse_crypto_prefs+0x3f4>
    1f84:	e59f3220 	ldr	r3, [pc, #544]	; 21ac <switch_core_session_parse_crypto_prefs+0x4e8>
    1f88:	e59f1258 	ldr	r1, [pc, #600]	; 21e8 <switch_core_session_parse_crypto_prefs+0x524>
    1f8c:	e3a02002 	mov	r2, #2
    1f90:	e1a00004 	mov	r0, r4
    1f94:	e7862003 	str	r2, [r6, r3]
    1f98:	e08f1001 	add	r1, pc, r1
    1f9c:	ebfffffe 	bl	0 <strcasecmp>
    1fa0:	e3500000 	cmp	r0, #0
    1fa4:	0a000023 	beq	2038 <switch_core_session_parse_crypto_prefs+0x374>
    1fa8:	e59f123c 	ldr	r1, [pc, #572]	; 21ec <switch_core_session_parse_crypto_prefs+0x528>
    1fac:	e1a00004 	mov	r0, r4
    1fb0:	e08f1001 	add	r1, pc, r1
    1fb4:	ebfffffe 	bl	0 <strcasecmp>
    1fb8:	e3500000 	cmp	r0, #0
    1fbc:	0a00001d 	beq	2038 <switch_core_session_parse_crypto_prefs+0x374>
    1fc0:	e59f1228 	ldr	r1, [pc, #552]	; 21f0 <switch_core_session_parse_crypto_prefs+0x52c>
    1fc4:	e1a00004 	mov	r0, r4
    1fc8:	e08f1001 	add	r1, pc, r1
    1fcc:	ebfffffe 	bl	0 <strcasecmp>
    1fd0:	e3500000 	cmp	r0, #0
    1fd4:	0a000017 	beq	2038 <switch_core_session_parse_crypto_prefs+0x374>
    1fd8:	e59f1214 	ldr	r1, [pc, #532]	; 21f4 <switch_core_session_parse_crypto_prefs+0x530>
    1fdc:	e1a00004 	mov	r0, r4
    1fe0:	e08f1001 	add	r1, pc, r1
    1fe4:	ebfffffe 	bl	0 <strcasecmp>
    1fe8:	e3500000 	cmp	r0, #0
    1fec:	0a000011 	beq	2038 <switch_core_session_parse_crypto_prefs+0x374>
    1ff0:	e59f1200 	ldr	r1, [pc, #512]	; 21f8 <switch_core_session_parse_crypto_prefs+0x534>
    1ff4:	e1a00004 	mov	r0, r4
    1ff8:	e08f1001 	add	r1, pc, r1
    1ffc:	ebfffffe 	bl	0 <strcasecmp>
    2000:	e3500000 	cmp	r0, #0
    2004:	0a00000b 	beq	2038 <switch_core_session_parse_crypto_prefs+0x374>
    2008:	e59f11ec 	ldr	r1, [pc, #492]	; 21fc <switch_core_session_parse_crypto_prefs+0x538>
    200c:	e1a00004 	mov	r0, r4
    2010:	e08f1001 	add	r1, pc, r1
    2014:	ebfffffe 	bl	0 <strcasecmp>
    2018:	e3500000 	cmp	r0, #0
    201c:	0a000005 	beq	2038 <switch_core_session_parse_crypto_prefs+0x374>
    2020:	e59f11d8 	ldr	r1, [pc, #472]	; 2200 <switch_core_session_parse_crypto_prefs+0x53c>
    2024:	e1a00004 	mov	r0, r4
    2028:	e08f1001 	add	r1, pc, r1
    202c:	ebfffffe 	bl	0 <strcasecmp>
    2030:	e3500000 	cmp	r0, #0
    2034:	1a000036 	bne	2114 <switch_core_session_parse_crypto_prefs+0x450>
    2038:	e59f316c 	ldr	r3, [pc, #364]	; 21ac <switch_core_session_parse_crypto_prefs+0x4e8>
    203c:	e7963003 	ldr	r3, [r6, r3]
    2040:	e3530002 	cmp	r3, #2
    2044:	1affff63 	bne	1dd8 <switch_core_session_parse_crypto_prefs+0x114>
    2048:	e59f11b4 	ldr	r1, [pc, #436]	; 2204 <switch_core_session_parse_crypto_prefs+0x540>
    204c:	e2866c5d 	add	r6, r6, #23808	; 0x5d00
    2050:	e2866004 	add	r6, r6, #4
    2054:	e3a03000 	mov	r3, #0
    2058:	e08f1001 	add	r1, pc, r1
    205c:	e0812003 	add	r2, r1, r3
    2060:	e283300c 	add	r3, r3, #12
    2064:	e5922004 	ldr	r2, [r2, #4]
    2068:	e353006c 	cmp	r3, #108	; 0x6c
    206c:	e5a62004 	str	r2, [r6, #4]!
    2070:	1afffff9 	bne	205c <switch_core_session_parse_crypto_prefs+0x398>
    2074:	eaffff1e 	b	1cf4 <switch_core_session_parse_crypto_prefs+0x30>
    2078:	e0899089 	add	r9, r9, r9, lsl #1
    207c:	e59d1018 	ldr	r1, [sp, #24]
    2080:	e0849109 	add	r9, r4, r9, lsl #2
    2084:	e2813d5d 	add	r3, r1, #5952	; 0x1740
    2088:	e2833002 	add	r3, r3, #2
    208c:	e5992004 	ldr	r2, [r9, #4]
    2090:	e2811001 	add	r1, r1, #1
    2094:	e58d1018 	str	r1, [sp, #24]
    2098:	e7862103 	str	r2, [r6, r3, lsl #2]
    209c:	eaffff7c 	b	1e94 <switch_core_session_parse_crypto_prefs+0x1d0>
    20a0:	e1a00004 	mov	r0, r4
    20a4:	e3a01000 	mov	r1, #0
    20a8:	e3a0200a 	mov	r2, #10
    20ac:	ebfffffe 	bl	0 <strtol>
    20b0:	e3500000 	cmp	r0, #0
    20b4:	0affffac 	beq	1f6c <switch_core_session_parse_crypto_prefs+0x2a8>
    20b8:	e59f30ec 	ldr	r3, [pc, #236]	; 21ac <switch_core_session_parse_crypto_prefs+0x4e8>
    20bc:	e3a02001 	mov	r2, #1
    20c0:	e7862003 	str	r2, [r6, r3]
    20c4:	eaffff43 	b	1dd8 <switch_core_session_parse_crypto_prefs+0x114>
    20c8:	e5950018 	ldr	r0, [r5, #24]
    20cc:	e3a01054 	mov	r1, #84	; 0x54
    20d0:	ebfffffe 	bl	0 <switch_channel_test_flag>
    20d4:	e59f412c 	ldr	r4, [pc, #300]	; 2208 <switch_core_session_parse_crypto_prefs+0x544>
    20d8:	e08f4004 	add	r4, pc, r4
    20dc:	e3500000 	cmp	r0, #0
    20e0:	159f4124 	ldrne	r4, [pc, #292]	; 220c <switch_core_session_parse_crypto_prefs+0x548>
    20e4:	108f4004 	addne	r4, pc, r4
    20e8:	eaffff32 	b	1db8 <switch_core_session_parse_crypto_prefs+0xf4>
    20ec:	e59f811c 	ldr	r8, [pc, #284]	; 2210 <switch_core_session_parse_crypto_prefs+0x54c>
    20f0:	e5950018 	ldr	r0, [r5, #24]
    20f4:	e08f8008 	add	r8, pc, r8
    20f8:	e1a01008 	mov	r1, r8
    20fc:	e3a02001 	mov	r2, #1
    2100:	e3e03000 	mvn	r3, #0
    2104:	ebfffffe 	bl	0 <switch_channel_get_variable_dup>
    2108:	e2504000 	subs	r4, r0, #0
    210c:	0affff17 	beq	1d70 <switch_core_session_parse_crypto_prefs+0xac>
    2110:	eaffff06 	b	1d30 <switch_core_session_parse_crypto_prefs+0x6c>
    2114:	e1a00004 	mov	r0, r4
    2118:	ebfffffe 	bl	0 <switch_is_number>
    211c:	e3500000 	cmp	r0, #0
    2120:	1a000015 	bne	217c <switch_core_session_parse_crypto_prefs+0x4b8>
    2124:	e59f10e8 	ldr	r1, [pc, #232]	; 2214 <switch_core_session_parse_crypto_prefs+0x550>
    2128:	e1a00004 	mov	r0, r4
    212c:	e08f1001 	add	r1, pc, r1
    2130:	ebfffffe 	bl	0 <strcasecmp>
    2134:	e3500000 	cmp	r0, #0
    2138:	0affffbe 	beq	2038 <switch_core_session_parse_crypto_prefs+0x374>
    213c:	e3a0c004 	mov	ip, #4
    2140:	e59f20d0 	ldr	r2, [pc, #208]	; 2218 <switch_core_session_parse_crypto_prefs+0x554>
    2144:	e58dc004 	str	ip, [sp, #4]
    2148:	e59f10cc 	ldr	r1, [pc, #204]	; 221c <switch_core_session_parse_crypto_prefs+0x558>
    214c:	e59fc0cc 	ldr	ip, [pc, #204]	; 2220 <switch_core_session_parse_crypto_prefs+0x55c>
    2150:	e08f2002 	add	r2, pc, r2
    2154:	e08fc00c 	add	ip, pc, ip
    2158:	e3a00003 	mov	r0, #3
    215c:	e08f1001 	add	r1, pc, r1
    2160:	e2822f51 	add	r2, r2, #324	; 0x144
    2164:	e59f30b8 	ldr	r3, [pc, #184]	; 2224 <switch_core_session_parse_crypto_prefs+0x560>
    2168:	e58d5000 	str	r5, [sp]
    216c:	e58dc008 	str	ip, [sp, #8]
    2170:	e58d800c 	str	r8, [sp, #12]
    2174:	ebfffffe 	bl	0 <switch_log_printf>
    2178:	eaffffae 	b	2038 <switch_core_session_parse_crypto_prefs+0x374>
    217c:	e1a00004 	mov	r0, r4
    2180:	e3a01000 	mov	r1, #0
    2184:	e3a0200a 	mov	r2, #10
    2188:	ebfffffe 	bl	0 <strtol>
    218c:	e3500000 	cmp	r0, #0
    2190:	1affffe3 	bne	2124 <switch_core_session_parse_crypto_prefs+0x460>
    2194:	eaffffa7 	b	2038 <switch_core_session_parse_crypto_prefs+0x374>
    2198:	000056cc 	.word	0x000056cc
    219c:	0000048c 	.word	0x0000048c
    21a0:	00000420 	.word	0x00000420
    21a4:	000003f0 	.word	0x000003f0
    21a8:	000003e0 	.word	0x000003e0
    21ac:	00005d04 	.word	0x00005d04
    21b0:	00000380 	.word	0x00000380
    21b4:	00000388 	.word	0x00000388
    21b8:	00000334 	.word	0x00000334
    21bc:	0000033c 	.word	0x0000033c
    21c0:	00000476 	.word	0x00000476
    21c4:	00000310 	.word	0x00000310
    21c8:	00000304 	.word	0x00000304
    21cc:	000002f0 	.word	0x000002f0
    21d0:	000002dc 	.word	0x000002dc
    21d4:	000002c8 	.word	0x000002c8
    21d8:	000002b4 	.word	0x000002b4
    21dc:	000002a0 	.word	0x000002a0
    21e0:	0000028c 	.word	0x0000028c
    21e4:	00000268 	.word	0x00000268
    21e8:	00000248 	.word	0x00000248
    21ec:	00000234 	.word	0x00000234
    21f0:	00000220 	.word	0x00000220
    21f4:	0000020c 	.word	0x0000020c
    21f8:	000001f8 	.word	0x000001f8
    21fc:	000001e4 	.word	0x000001e4
    2200:	000001d0 	.word	0x000001d0
    2204:	000001a4 	.word	0x000001a4
    2208:	00000128 	.word	0x00000128
    220c:	00000120 	.word	0x00000120
    2210:	00000114 	.word	0x00000114
    2214:	000000e0 	.word	0x000000e0
    2218:	000000c0 	.word	0x000000c0
    221c:	000000b8 	.word	0x000000b8
    2220:	000000c4 	.word	0x000000c4
    2224:	00000463 	.word	0x00000463

00002228 <switch_core_media_crypto_str2type>:
    2228:	e92d41f0 	push	{r4, r5, r6, r7, r8, lr}
    222c:	e3a04000 	mov	r4, #0
    2230:	e59f6054 	ldr	r6, [pc, #84]	; 228c <switch_core_media_crypto_str2type+0x64>
    2234:	e1a07000 	mov	r7, r0
    2238:	e08f6006 	add	r6, pc, r6
    223c:	e1a05004 	mov	r5, r4
    2240:	e7948006 	ldr	r8, [r4, r6]
    2244:	e284400c 	add	r4, r4, #12
    2248:	e1a00008 	mov	r0, r8
    224c:	ebfffffe 	bl	0 <strlen>
    2250:	e1a01008 	mov	r1, r8
    2254:	e1a02000 	mov	r2, r0
    2258:	e1a00007 	mov	r0, r7
    225c:	ebfffffe 	bl	0 <strncasecmp>
    2260:	e3500000 	cmp	r0, #0
    2264:	0a000004 	beq	227c <switch_core_media_crypto_str2type+0x54>
    2268:	e2855001 	add	r5, r5, #1
    226c:	e3550009 	cmp	r5, #9
    2270:	1afffff2 	bne	2240 <switch_core_media_crypto_str2type+0x18>
    2274:	e1a00005 	mov	r0, r5
    2278:	e8bd81f0 	pop	{r4, r5, r6, r7, r8, pc}
    227c:	e0855085 	add	r5, r5, r5, lsl #1
    2280:	e0866105 	add	r6, r6, r5, lsl #2
    2284:	e5960004 	ldr	r0, [r6, #4]
    2288:	e8bd81f0 	pop	{r4, r5, r6, r7, r8, pc}
    228c:	0000004c 	.word	0x0000004c

00002290 <switch_core_session_get_recovery_crypto_key>:
    2290:	e59f3154 	ldr	r3, [pc, #340]	; 23ec <switch_core_session_get_recovery_crypto_key+0x15c>
    2294:	e92d41f0 	push	{r4, r5, r6, r7, r8, lr}
    2298:	e1a04000 	mov	r4, r0
    229c:	e7905003 	ldr	r5, [r0, r3]
    22a0:	e24dd008 	sub	sp, sp, #8
    22a4:	e3550000 	cmp	r5, #0
    22a8:	e1a06001 	mov	r6, r1
    22ac:	0a000047 	beq	23d0 <switch_core_session_get_recovery_crypto_key+0x140>
    22b0:	e3510000 	cmp	r1, #0
    22b4:	0a000039 	beq	23a0 <switch_core_session_get_recovery_crypto_key+0x110>
    22b8:	e59f1130 	ldr	r1, [pc, #304]	; 23f0 <switch_core_session_get_recovery_crypto_key+0x160>
    22bc:	e5940018 	ldr	r0, [r4, #24]
    22c0:	e08f1001 	add	r1, pc, r1
    22c4:	e3a02001 	mov	r2, #1
    22c8:	e3e03000 	mvn	r3, #0
    22cc:	ebfffffe 	bl	0 <switch_channel_get_variable_dup>
    22d0:	e59f711c 	ldr	r7, [pc, #284]	; 23f4 <switch_core_session_get_recovery_crypto_key+0x164>
    22d4:	e59f811c 	ldr	r8, [pc, #284]	; 23f8 <switch_core_session_get_recovery_crypto_key+0x168>
    22d8:	e08f7007 	add	r7, pc, r7
    22dc:	e08f8008 	add	r8, pc, r8
    22e0:	e3500000 	cmp	r0, #0
    22e4:	0a000039 	beq	23d0 <switch_core_session_get_recovery_crypto_key+0x140>
    22e8:	e59f310c 	ldr	r3, [pc, #268]	; 23fc <switch_core_session_get_recovery_crypto_key+0x16c>
    22ec:	e1a01007 	mov	r1, r7
    22f0:	e5940018 	ldr	r0, [r4, #24]
    22f4:	e0255693 	mla	r5, r3, r6, r5
    22f8:	e3a02001 	mov	r2, #1
    22fc:	e3e03000 	mvn	r3, #0
    2300:	ebfffffe 	bl	0 <switch_channel_get_variable_dup>
    2304:	e2855050 	add	r5, r5, #80	; 0x50
    2308:	e2507000 	subs	r7, r0, #0
    230c:	059565a0 	ldreq	r6, [r5, #1440]	; 0x5a0
    2310:	0a000002 	beq	2320 <switch_core_session_get_recovery_crypto_key+0x90>
    2314:	ebfffffe 	bl	2228 <switch_core_media_crypto_str2type>
    2318:	e1a06000 	mov	r6, r0
    231c:	e58505a0 	str	r0, [r5, #1440]	; 0x5a0
    2320:	e59f30d8 	ldr	r3, [pc, #216]	; 2400 <switch_core_session_get_recovery_crypto_key+0x170>
    2324:	e59f20d8 	ldr	r2, [pc, #216]	; 2404 <switch_core_session_get_recovery_crypto_key+0x174>
    2328:	e59fc0d8 	ldr	ip, [pc, #216]	; 2408 <switch_core_session_get_recovery_crypto_key+0x178>
    232c:	e08f3003 	add	r3, pc, r3
    2330:	e1a01007 	mov	r1, r7
    2334:	e08f2002 	add	r2, pc, r2
    2338:	e2833f5b 	add	r3, r3, #364	; 0x16c
    233c:	e1a00004 	mov	r0, r4
    2340:	e58dc000 	str	ip, [sp]
    2344:	ebfffffe 	bl	0 <switch_core_perform_session_strdup>
    2348:	e0866186 	add	r6, r6, r6, lsl #3
    234c:	e1a01008 	mov	r1, r8
    2350:	e0856206 	add	r6, r5, r6, lsl #4
    2354:	e3a02001 	mov	r2, #1
    2358:	e3e03000 	mvn	r3, #0
    235c:	e586008c 	str	r0, [r6, #140]	; 0x8c
    2360:	e5940018 	ldr	r0, [r4, #24]
    2364:	ebfffffe 	bl	0 <switch_channel_get_variable_dup>
    2368:	e3500000 	cmp	r0, #0
    236c:	0a000019 	beq	23d8 <switch_core_session_get_recovery_crypto_key+0x148>
    2370:	e3a01000 	mov	r1, #0
    2374:	e3a0200a 	mov	r2, #10
    2378:	ebfffffe 	bl	0 <strtol>
    237c:	e59535a0 	ldr	r3, [r5, #1440]	; 0x5a0
    2380:	e0833183 	add	r3, r3, r3, lsl #3
    2384:	e7850203 	str	r0, [r5, r3, lsl #4]
    2388:	e5940018 	ldr	r0, [r4, #24]
    238c:	e3a0105c 	mov	r1, #92	; 0x5c
    2390:	e3a02001 	mov	r2, #1
    2394:	e28dd008 	add	sp, sp, #8
    2398:	e8bd41f0 	pop	{r4, r5, r6, r7, r8, lr}
    239c:	eafffffe 	b	0 <switch_channel_set_flag_value>
    23a0:	e59f1064 	ldr	r1, [pc, #100]	; 240c <switch_core_session_get_recovery_crypto_key+0x17c>
    23a4:	e5940018 	ldr	r0, [r4, #24]
    23a8:	e08f1001 	add	r1, pc, r1
    23ac:	e3a02001 	mov	r2, #1
    23b0:	e3e03000 	mvn	r3, #0
    23b4:	ebfffffe 	bl	0 <switch_channel_get_variable_dup>
    23b8:	e59f7050 	ldr	r7, [pc, #80]	; 2410 <switch_core_session_get_recovery_crypto_key+0x180>
    23bc:	e59f8050 	ldr	r8, [pc, #80]	; 2414 <switch_core_session_get_recovery_crypto_key+0x184>
    23c0:	e08f7007 	add	r7, pc, r7
    23c4:	e08f8008 	add	r8, pc, r8
    23c8:	e3500000 	cmp	r0, #0
    23cc:	1affffc5 	bne	22e8 <switch_core_session_get_recovery_crypto_key+0x58>
    23d0:	e28dd008 	add	sp, sp, #8
    23d4:	e8bd81f0 	pop	{r4, r5, r6, r7, r8, pc}
    23d8:	e59535a0 	ldr	r3, [r5, #1440]	; 0x5a0
    23dc:	e3a02001 	mov	r2, #1
    23e0:	e0833183 	add	r3, r3, r3, lsl #3
    23e4:	e7852203 	str	r2, [r5, r3, lsl #4]
    23e8:	eaffffe6 	b	2388 <switch_core_session_get_recovery_crypto_key+0xf8>
    23ec:	000056cc 	.word	0x000056cc
    23f0:	00000128 	.word	0x00000128
    23f4:	00000114 	.word	0x00000114
    23f8:	00000114 	.word	0x00000114
    23fc:	00002c98 	.word	0x00002c98
    2400:	000000cc 	.word	0x000000cc
    2404:	000000c8 	.word	0x000000c8
    2408:	000003f7 	.word	0x000003f7
    240c:	0000005c 	.word	0x0000005c
    2410:	00000048 	.word	0x00000048
    2414:	00000048 	.word	0x00000048

00002418 <switch_core_media_crypto_type2str>:
    2418:	e3500008 	cmp	r0, #8
    241c:	e92d4008 	push	{r3, lr}
    2420:	8a000004 	bhi	2438 <switch_core_media_crypto_type2str+0x20>
    2424:	e59f3030 	ldr	r3, [pc, #48]	; 245c <switch_core_media_crypto_type2str+0x44>
    2428:	e0800080 	add	r0, r0, r0, lsl #1
    242c:	e08f3003 	add	r3, pc, r3
    2430:	e7930100 	ldr	r0, [r3, r0, lsl #2]
    2434:	e8bd8008 	pop	{r3, pc}
    2438:	e59f3020 	ldr	r3, [pc, #32]	; 2460 <switch_core_media_crypto_type2str+0x48>
    243c:	e59f0020 	ldr	r0, [pc, #32]	; 2464 <switch_core_media_crypto_type2str+0x4c>
    2440:	e59f1020 	ldr	r1, [pc, #32]	; 2468 <switch_core_media_crypto_type2str+0x50>
    2444:	e08f3003 	add	r3, pc, r3
    2448:	e08f0000 	add	r0, pc, r0
    244c:	e08f1001 	add	r1, pc, r1
    2450:	e3a020de 	mov	r2, #222	; 0xde
    2454:	e2833f66 	add	r3, r3, #408	; 0x198
    2458:	ebfffffe 	bl	0 <__assert_fail>
    245c:	00000028 	.word	0x00000028
    2460:	00000014 	.word	0x00000014
    2464:	00000014 	.word	0x00000014
    2468:	00000014 	.word	0x00000014

0000246c <switch_core_media_crypto_keylen>:
    246c:	e3500008 	cmp	r0, #8
    2470:	e92d4008 	push	{r3, lr}
    2474:	8a000005 	bhi	2490 <switch_core_media_crypto_keylen+0x24>
    2478:	e59f3034 	ldr	r3, [pc, #52]	; 24b4 <switch_core_media_crypto_keylen+0x48>
    247c:	e0800080 	add	r0, r0, r0, lsl #1
    2480:	e08f3003 	add	r3, pc, r3
    2484:	e0830100 	add	r0, r3, r0, lsl #2
    2488:	e5900008 	ldr	r0, [r0, #8]
    248c:	e8bd8008 	pop	{r3, pc}
    2490:	e59f3020 	ldr	r3, [pc, #32]	; 24b8 <switch_core_media_crypto_keylen+0x4c>
    2494:	e59f0020 	ldr	r0, [pc, #32]	; 24bc <switch_core_media_crypto_keylen+0x50>
    2498:	e59f1020 	ldr	r1, [pc, #32]	; 24c0 <switch_core_media_crypto_keylen+0x54>
    249c:	e08f3003 	add	r3, pc, r3
    24a0:	e08f0000 	add	r0, pc, r0
    24a4:	e08f1001 	add	r1, pc, r1
    24a8:	e3a020e5 	mov	r2, #229	; 0xe5
    24ac:	e2833f6f 	add	r3, r3, #444	; 0x1bc
    24b0:	ebfffffe 	bl	0 <__assert_fail>
    24b4:	0000002c 	.word	0x0000002c
    24b8:	00000014 	.word	0x00000014
    24bc:	00000014 	.word	0x00000014
    24c0:	00000014 	.word	0x00000014

000024c4 <switch_core_media_pass_zrtp_hash2>:
    24c4:	e92d4038 	push	{r3, r4, r5, lr}
    24c8:	e3a02000 	mov	r2, #0
    24cc:	e1a05000 	mov	r5, r0
    24d0:	e1a04001 	mov	r4, r1
    24d4:	ebfff7bc 	bl	3cc <_switch_core_media_pass_zrtp_hash2>
    24d8:	e1a00005 	mov	r0, r5
    24dc:	e1a01004 	mov	r1, r4
    24e0:	e3a02001 	mov	r2, #1
    24e4:	e8bd4038 	pop	{r3, r4, r5, lr}
    24e8:	eafff7b7 	b	3cc <_switch_core_media_pass_zrtp_hash2>

000024ec <switch_core_media_pass_zrtp_hash>:
    24ec:	e92d41f0 	push	{r4, r5, r6, r7, r8, lr}
    24f0:	e24dd018 	sub	sp, sp, #24
    24f4:	e1a08000 	mov	r8, r0
    24f8:	ebfffffe 	bl	0 <switch_core_session_get_channel>
    24fc:	e59f4128 	ldr	r4, [pc, #296]	; 262c <switch_core_media_pass_zrtp_hash+0x140>
    2500:	e59f5128 	ldr	r5, [pc, #296]	; 2630 <switch_core_media_pass_zrtp_hash+0x144>
    2504:	e08f4004 	add	r4, pc, r4
    2508:	e08f5005 	add	r5, pc, r5
    250c:	e2844f77 	add	r4, r4, #476	; 0x1dc
    2510:	e3a06065 	mov	r6, #101	; 0x65
    2514:	e1a07000 	mov	r7, r0
    2518:	ebfffffe 	bl	0 <switch_channel_get_session>
    251c:	e59fc110 	ldr	ip, [pc, #272]	; 2634 <switch_core_media_pass_zrtp_hash+0x148>
    2520:	e1a01005 	mov	r1, r5
    2524:	e08fc00c 	add	ip, pc, ip
    2528:	e1a02004 	mov	r2, r4
    252c:	e59f3104 	ldr	r3, [pc, #260]	; 2638 <switch_core_media_pass_zrtp_hash+0x14c>
    2530:	e58dc008 	str	ip, [sp, #8]
    2534:	e58d6004 	str	r6, [sp, #4]
    2538:	e58d0000 	str	r0, [sp]
    253c:	e3a00003 	mov	r0, #3
    2540:	ebfffffe 	bl	0 <switch_log_printf>
    2544:	e1a00007 	mov	r0, r7
    2548:	e3a01049 	mov	r1, #73	; 0x49
    254c:	ebfffffe 	bl	0 <switch_channel_test_flag>
    2550:	e3500000 	cmp	r0, #0
    2554:	0a000027 	beq	25f8 <switch_core_media_pass_zrtp_hash+0x10c>
    2558:	e59fc0dc 	ldr	ip, [pc, #220]	; 263c <switch_core_media_pass_zrtp_hash+0x150>
    255c:	e1a00008 	mov	r0, r8
    2560:	e28d1014 	add	r1, sp, #20
    2564:	e1a02005 	mov	r2, r5
    2568:	e1a03004 	mov	r3, r4
    256c:	e58dc000 	str	ip, [sp]
    2570:	ebfffffe 	bl	0 <switch_core_session_perform_get_partner>
    2574:	e3500000 	cmp	r0, #0
    2578:	e1a00007 	mov	r0, r7
    257c:	1a000011 	bne	25c8 <switch_core_media_pass_zrtp_hash+0xdc>
    2580:	ebfffffe 	bl	0 <switch_channel_get_session>
    2584:	e59fc0b4 	ldr	ip, [pc, #180]	; 2640 <switch_core_media_pass_zrtp_hash+0x154>
    2588:	e1a01005 	mov	r1, r5
    258c:	e08fc00c 	add	ip, pc, ip
    2590:	e1a02004 	mov	r2, r4
    2594:	e59f30a8 	ldr	r3, [pc, #168]	; 2644 <switch_core_media_pass_zrtp_hash+0x158>
    2598:	e58dc008 	str	ip, [sp, #8]
    259c:	e58d6004 	str	r6, [sp, #4]
    25a0:	e58d0000 	str	r0, [sp]
    25a4:	e3a00003 	mov	r0, #3
    25a8:	ebfffffe 	bl	0 <switch_log_printf>
    25ac:	e1a00008 	mov	r0, r8
    25b0:	e59d1014 	ldr	r1, [sp, #20]
    25b4:	ebfffffe 	bl	24c4 <switch_core_media_pass_zrtp_hash2>
    25b8:	e59d0014 	ldr	r0, [sp, #20]
    25bc:	ebfffffe 	bl	0 <switch_core_session_rwunlock>
    25c0:	e28dd018 	add	sp, sp, #24
    25c4:	e8bd81f0 	pop	{r4, r5, r6, r7, r8, pc}
    25c8:	ebfffffe 	bl	0 <switch_channel_get_session>
    25cc:	e59fc074 	ldr	ip, [pc, #116]	; 2648 <switch_core_media_pass_zrtp_hash+0x15c>
    25d0:	e1a01005 	mov	r1, r5
    25d4:	e08fc00c 	add	ip, pc, ip
    25d8:	e1a02004 	mov	r2, r4
    25dc:	e59f3068 	ldr	r3, [pc, #104]	; 264c <switch_core_media_pass_zrtp_hash+0x160>
    25e0:	e58d6004 	str	r6, [sp, #4]
    25e4:	e58dc008 	str	ip, [sp, #8]
    25e8:	e58d0000 	str	r0, [sp]
    25ec:	e3a00003 	mov	r0, #3
    25f0:	ebfffffe 	bl	0 <switch_log_printf>
    25f4:	eafffff1 	b	25c0 <switch_core_media_pass_zrtp_hash+0xd4>
    25f8:	e1a00007 	mov	r0, r7
    25fc:	ebfffffe 	bl	0 <switch_channel_get_session>
    2600:	e59fc048 	ldr	ip, [pc, #72]	; 2650 <switch_core_media_pass_zrtp_hash+0x164>
    2604:	e1a01005 	mov	r1, r5
    2608:	e08fc00c 	add	ip, pc, ip
    260c:	e1a02004 	mov	r2, r4
    2610:	e59f303c 	ldr	r3, [pc, #60]	; 2654 <switch_core_media_pass_zrtp_hash+0x168>
    2614:	e58d6004 	str	r6, [sp, #4]
    2618:	e58dc008 	str	ip, [sp, #8]
    261c:	e58d0000 	str	r0, [sp]
    2620:	e3a00003 	mov	r0, #3
    2624:	ebfffffe 	bl	0 <switch_log_printf>
    2628:	eaffffe4 	b	25c0 <switch_core_media_pass_zrtp_hash+0xd4>
    262c:	00000120 	.word	0x00000120
    2630:	00000120 	.word	0x00000120
    2634:	00000108 	.word	0x00000108
    2638:	00000121 	.word	0x00000121
    263c:	00000125 	.word	0x00000125
    2640:	000000ac 	.word	0x000000ac
    2644:	00000129 	.word	0x00000129
    2648:	0000006c 	.word	0x0000006c
    264c:	00000126 	.word	0x00000126
    2650:	00000040 	.word	0x00000040
    2654:	00000123 	.word	0x00000123

00002658 <switch_core_media_get_zrtp_hash>:
    2658:	e59f3024 	ldr	r3, [pc, #36]	; 2684 <switch_core_media_get_zrtp_hash+0x2c>
    265c:	e7900003 	ldr	r0, [r0, r3]
    2660:	e3500000 	cmp	r0, #0
    2664:	012fff1e 	bxeq	lr
    2668:	e59f3018 	ldr	r3, [pc, #24]	; 2688 <switch_core_media_get_zrtp_hash+0x30>
    266c:	e3520000 	cmp	r2, #0
    2670:	e0210193 	mla	r1, r3, r1, r0
    2674:	e2811050 	add	r1, r1, #80	; 0x50
    2678:	15910738 	ldrne	r0, [r1, #1848]	; 0x738
    267c:	0591073c 	ldreq	r0, [r1, #1852]	; 0x73c
    2680:	e12fff1e 	bx	lr
    2684:	000056cc 	.word	0x000056cc
    2688:	00002c98 	.word	0x00002c98

0000268c <switch_core_media_extract_t38_options>:
    268c:	e92d4070 	push	{r4, r5, r6, lr}
    2690:	e1a04000 	mov	r4, r0
    2694:	e1a00001 	mov	r0, r1
    2698:	e1a05001 	mov	r5, r1
    269c:	ebfffffe 	bl	0 <strlen>
    26a0:	e1a01005 	mov	r1, r5
    26a4:	e1a02000 	mov	r2, r0
    26a8:	e3a00000 	mov	r0, #0
    26ac:	e1a03000 	mov	r3, r0
    26b0:	ebfffffe 	bl	0 <sdp_parse>
    26b4:	e2505000 	subs	r5, r0, #0
    26b8:	01a04005 	moveq	r4, r5
    26bc:	0a00001b 	beq	2730 <switch_core_media_extract_t38_options+0xa4>
    26c0:	ebfffffe 	bl	0 <sdp_session>
    26c4:	e2506000 	subs	r6, r0, #0
    26c8:	0a00001a 	beq	2738 <switch_core_media_extract_t38_options+0xac>
    26cc:	e596203c 	ldr	r2, [r6, #60]	; 0x3c
    26d0:	e3520000 	cmp	r2, #0
    26d4:	0a000012 	beq	2724 <switch_core_media_extract_t38_options+0x98>
    26d8:	e59f1068 	ldr	r1, [pc, #104]	; 2748 <switch_core_media_extract_t38_options+0xbc>
    26dc:	ea000002 	b	26ec <switch_core_media_extract_t38_options+0x60>
    26e0:	e5922004 	ldr	r2, [r2, #4]
    26e4:	e3520000 	cmp	r2, #0
    26e8:	0a00000d 	beq	2724 <switch_core_media_extract_t38_options+0x98>
    26ec:	e592301c 	ldr	r3, [r2, #28]
    26f0:	e1530001 	cmp	r3, r1
    26f4:	1afffff9 	bne	26e0 <switch_core_media_extract_t38_options+0x54>
    26f8:	e592300c 	ldr	r3, [r2, #12]
    26fc:	e3530008 	cmp	r3, #8
    2700:	1afffff6 	bne	26e0 <switch_core_media_extract_t38_options+0x54>
    2704:	e5923014 	ldr	r3, [r2, #20]
    2708:	e3530000 	cmp	r3, #0
    270c:	0afffff3 	beq	26e0 <switch_core_media_extract_t38_options+0x54>
    2710:	e1a00004 	mov	r0, r4
    2714:	e1a01006 	mov	r1, r6
    2718:	ebfffa17 	bl	f7c <switch_core_media_process_udptl>
    271c:	e1a04000 	mov	r4, r0
    2720:	ea000000 	b	2728 <switch_core_media_extract_t38_options+0x9c>
    2724:	e1a04002 	mov	r4, r2
    2728:	e1a00005 	mov	r0, r5
    272c:	ebfffffe 	bl	0 <sdp_parser_free>
    2730:	e1a00004 	mov	r0, r4
    2734:	e8bd8070 	pop	{r4, r5, r6, pc}
    2738:	e1a00005 	mov	r0, r5
    273c:	ebfffffe 	bl	0 <sdp_parser_free>
    2740:	e1a04006 	mov	r4, r6
    2744:	eafffff9 	b	2730 <switch_core_media_extract_t38_options+0xa4>
    2748:	00000102 	.word	0x00000102

0000274c <switch_core_session_get_payload_code>:
    274c:	e92d4ff8 	push	{r3, r4, r5, r6, r7, r8, r9, sl, fp, lr}
    2750:	e3500000 	cmp	r0, #0
    2754:	e1a04002 	mov	r4, r2
    2758:	e1a08003 	mov	r8, r3
    275c:	e59d7028 	ldr	r7, [sp, #40]	; 0x28
    2760:	e59da02c 	ldr	sl, [sp, #44]	; 0x2c
    2764:	0a000032 	beq	2834 <switch_core_session_get_payload_code+0xe8>
    2768:	e59f30e8 	ldr	r3, [pc, #232]	; 2858 <switch_core_session_get_payload_code+0x10c>
    276c:	e7906003 	ldr	r6, [r0, r3]
    2770:	e3560000 	cmp	r6, #0
    2774:	0a000016 	beq	27d4 <switch_core_session_get_payload_code+0x88>
    2778:	e59f50dc 	ldr	r5, [pc, #220]	; 285c <switch_core_session_get_payload_code+0x110>
    277c:	e59f30dc 	ldr	r3, [pc, #220]	; 2860 <switch_core_session_get_payload_code+0x114>
    2780:	e0216195 	mla	r1, r5, r1, r6
    2784:	e7960003 	ldr	r0, [r6, r3]
    2788:	e2815050 	add	r5, r1, #80	; 0x50
    278c:	ebfffffe 	bl	0 <switch_mutex_lock>
    2790:	e5955744 	ldr	r5, [r5, #1860]	; 0x744
    2794:	e3550000 	cmp	r5, #0
    2798:	0a00000a 	beq	27c8 <switch_core_session_get_payload_code+0x7c>
    279c:	e5d53010 	ldrb	r3, [r5, #16]
    27a0:	e3530000 	cmp	r3, #0
    27a4:	0a000004 	beq	27bc <switch_core_session_get_payload_code+0x70>
    27a8:	e595001c 	ldr	r0, [r5, #28]
    27ac:	e1a01004 	mov	r1, r4
    27b0:	ebfffffe 	bl	0 <strcasecmp>
    27b4:	e3500000 	cmp	r0, #0
    27b8:	0a000007 	beq	27dc <switch_core_session_get_payload_code+0x90>
    27bc:	e5955050 	ldr	r5, [r5, #80]	; 0x50
    27c0:	e3550000 	cmp	r5, #0
    27c4:	1afffff4 	bne	279c <switch_core_session_get_payload_code+0x50>
    27c8:	e59f3090 	ldr	r3, [pc, #144]	; 2860 <switch_core_session_get_payload_code+0x114>
    27cc:	e7960003 	ldr	r0, [r6, r3]
    27d0:	ebfffffe 	bl	0 <switch_mutex_unlock>
    27d4:	e3a00001 	mov	r0, #1
    27d8:	e8bd8ff8 	pop	{r3, r4, r5, r6, r7, r8, r9, sl, fp, pc}
    27dc:	e59f307c 	ldr	r3, [pc, #124]	; 2860 <switch_core_session_get_payload_code+0x114>
    27e0:	e5d5b020 	ldrb	fp, [r5, #32]
    27e4:	e5d59039 	ldrb	r9, [r5, #57]	; 0x39
    27e8:	e7960003 	ldr	r0, [r6, r3]
    27ec:	e5954034 	ldr	r4, [r5, #52]	; 0x34
    27f0:	ebfffffe 	bl	0 <switch_mutex_unlock>
    27f4:	e3580000 	cmp	r8, #0
    27f8:	15c8b000 	strbne	fp, [r8]
    27fc:	e3570000 	cmp	r7, #0
    2800:	15c79000 	strbne	r9, [r7]
    2804:	e3540000 	cmp	r4, #0
    2808:	0a000007 	beq	282c <switch_core_session_get_payload_code+0xe0>
    280c:	e5d40000 	ldrb	r0, [r4]
    2810:	e3500000 	cmp	r0, #0
    2814:	08bd8ff8 	popeq	{r3, r4, r5, r6, r7, r8, r9, sl, fp, pc}
    2818:	e35a0000 	cmp	sl, #0
    281c:	01a0000a 	moveq	r0, sl
    2820:	158a4000 	strne	r4, [sl]
    2824:	13a00000 	movne	r0, #0
    2828:	e8bd8ff8 	pop	{r3, r4, r5, r6, r7, r8, r9, sl, fp, pc}
    282c:	e1a00004 	mov	r0, r4
    2830:	e8bd8ff8 	pop	{r3, r4, r5, r6, r7, r8, r9, sl, fp, pc}
    2834:	e59f3028 	ldr	r3, [pc, #40]	; 2864 <switch_core_session_get_payload_code+0x118>
    2838:	e59f0028 	ldr	r0, [pc, #40]	; 2868 <switch_core_session_get_payload_code+0x11c>
    283c:	e59f1028 	ldr	r1, [pc, #40]	; 286c <switch_core_session_get_payload_code+0x120>
    2840:	e08f3003 	add	r3, pc, r3
    2844:	e08f0000 	add	r0, pc, r0
    2848:	e08f1001 	add	r1, pc, r1
    284c:	e59f201c 	ldr	r2, [pc, #28]	; 2870 <switch_core_session_get_payload_code+0x124>
    2850:	e2833c02 	add	r3, r3, #512	; 0x200
    2854:	ebfffffe 	bl	0 <__assert_fail>
    2858:	000056cc 	.word	0x000056cc
    285c:	00002c98 	.word	0x00002c98
    2860:	00005b20 	.word	0x00005b20
    2864:	0000001c 	.word	0x0000001c
    2868:	0000001c 	.word	0x0000001c
    286c:	0000001c 	.word	0x0000001c
    2870:	00000212 	.word	0x00000212

00002874 <switch_core_media_add_payload_map>:
    2874:	e92d4ff0 	push	{r4, r5, r6, r7, r8, r9, sl, fp, lr}
    2878:	e24dd01c 	sub	sp, sp, #28
    287c:	e2508000 	subs	r8, r0, #0
    2880:	e1a09001 	mov	r9, r1
    2884:	e1a07002 	mov	r7, r2
    2888:	e1a05003 	mov	r5, r3
    288c:	e5ddb050 	ldrb	fp, [sp, #80]	; 0x50
    2890:	0a0000ac 	beq	2b48 <switch_core_media_add_payload_map+0x2d4>
    2894:	e59f32d0 	ldr	r3, [pc, #720]	; 2b6c <switch_core_media_add_payload_map+0x2f8>
    2898:	e7986003 	ldr	r6, [r8, r3]
    289c:	e3560000 	cmp	r6, #0
    28a0:	01a04006 	moveq	r4, r6
    28a4:	0a000094 	beq	2afc <switch_core_media_add_payload_map+0x288>
    28a8:	e59fa2c0 	ldr	sl, [pc, #704]	; 2b70 <switch_core_media_add_payload_map+0x2fc>
    28ac:	e59f32c0 	ldr	r3, [pc, #704]	; 2b74 <switch_core_media_add_payload_map+0x300>
    28b0:	e02a619a 	mla	sl, sl, r1, r6
    28b4:	e7960003 	ldr	r0, [r6, r3]
    28b8:	e28aa050 	add	sl, sl, #80	; 0x50
    28bc:	ebfffffe 	bl	0 <switch_mutex_lock>
    28c0:	e59a4744 	ldr	r4, [sl, #1860]	; 0x744
    28c4:	e3540000 	cmp	r4, #0
    28c8:	0a000096 	beq	2b28 <switch_core_media_add_payload_map+0x2b4>
    28cc:	e5d43010 	ldrb	r3, [r4, #16]
    28d0:	e3530000 	cmp	r3, #0
    28d4:	0a000097 	beq	2b38 <switch_core_media_add_payload_map+0x2c4>
    28d8:	e3a02000 	mov	r2, #0
    28dc:	e58d200c 	str	r2, [sp, #12]
    28e0:	e1a00007 	mov	r0, r7
    28e4:	e594101c 	ldr	r1, [r4, #28]
    28e8:	ebfffffe 	bl	0 <strcasecmp>
    28ec:	e3500000 	cmp	r0, #0
    28f0:	1a000005 	bne	290c <switch_core_media_add_payload_map+0x98>
    28f4:	e594300c 	ldr	r3, [r4, #12]
    28f8:	e3530000 	cmp	r3, #0
    28fc:	0a000027 	beq	29a0 <switch_core_media_add_payload_map+0x12c>
    2900:	e59d2048 	ldr	r2, [sp, #72]	; 0x48
    2904:	e1530002 	cmp	r3, r2
    2908:	0a000024 	beq	29a0 <switch_core_media_add_payload_map+0x12c>
    290c:	e5944050 	ldr	r4, [r4, #80]	; 0x50
    2910:	e3540000 	cmp	r4, #0
    2914:	0a000002 	beq	2924 <switch_core_media_add_payload_map+0xb0>
    2918:	e5d43010 	ldrb	r3, [r4, #16]
    291c:	e3530000 	cmp	r3, #0
    2920:	1affffee 	bne	28e0 <switch_core_media_add_payload_map+0x6c>
    2924:	e3e03000 	mvn	r3, #0
    2928:	e58d3014 	str	r3, [sp, #20]
    292c:	e59f3244 	ldr	r3, [pc, #580]	; 2b78 <switch_core_media_add_payload_map+0x304>
    2930:	e59f2244 	ldr	r2, [pc, #580]	; 2b7c <switch_core_media_add_payload_map+0x308>
    2934:	e08f3003 	add	r3, pc, r3
    2938:	e5980000 	ldr	r0, [r8]
    293c:	e3a0ce27 	mov	ip, #624	; 0x270
    2940:	e3a01054 	mov	r1, #84	; 0x54
    2944:	e08f2002 	add	r2, pc, r2
    2948:	e2833f93 	add	r3, r3, #588	; 0x24c
    294c:	e58dc000 	str	ip, [sp]
    2950:	ebfffffe 	bl	0 <switch_core_perform_alloc>
    2954:	e1a04000 	mov	r4, r0
    2958:	e59f3220 	ldr	r3, [pc, #544]	; 2b80 <switch_core_media_add_payload_map+0x30c>
    295c:	e59f2220 	ldr	r2, [pc, #544]	; 2b84 <switch_core_media_add_payload_map+0x310>
    2960:	e08f3003 	add	r3, pc, r3
    2964:	e5980000 	ldr	r0, [r8]
    2968:	e1a01007 	mov	r1, r7
    296c:	e3a0cf9d 	mov	ip, #628	; 0x274
    2970:	e5849000 	str	r9, [r4]
    2974:	e08f2002 	add	r2, pc, r2
    2978:	e2833f93 	add	r3, r3, #588	; 0x24c
    297c:	e58dc000 	str	ip, [sp]
    2980:	ebfffffe 	bl	0 <switch_core_perform_strdup>
    2984:	e28d1014 	add	r1, sp, #20
    2988:	e3a07001 	mov	r7, #1
    298c:	e584001c 	str	r0, [r4, #28]
    2990:	e5840018 	str	r0, [r4, #24]
    2994:	ebfffffe 	bl	0 <switch_ci_hashfunc_default>
    2998:	e5840014 	str	r0, [r4, #20]
    299c:	ea000015 	b	29f8 <switch_core_media_add_payload_map+0x184>
    29a0:	e5943008 	ldr	r3, [r4, #8]
    29a4:	e3530000 	cmp	r3, #0
    29a8:	1a000056 	bne	2b08 <switch_core_media_add_payload_map+0x294>
    29ac:	e3550000 	cmp	r5, #0
    29b0:	0a00005a 	beq	2b20 <switch_core_media_add_payload_map+0x2ac>
    29b4:	e5d53000 	ldrb	r3, [r5]
    29b8:	e3530000 	cmp	r3, #0
    29bc:	0a00000c 	beq	29f4 <switch_core_media_add_payload_map+0x180>
    29c0:	e5940034 	ldr	r0, [r4, #52]	; 0x34
    29c4:	e3500000 	cmp	r0, #0
    29c8:	0a000052 	beq	2b18 <switch_core_media_add_payload_map+0x2a4>
    29cc:	e5d03000 	ldrb	r3, [r0]
    29d0:	e3530000 	cmp	r3, #0
    29d4:	0a000006 	beq	29f4 <switch_core_media_add_payload_map+0x180>
    29d8:	e1a01005 	mov	r1, r5
    29dc:	ebfffffe 	bl	0 <strcmp>
    29e0:	e3500000 	cmp	r0, #0
    29e4:	0a00004b 	beq	2b18 <switch_core_media_add_payload_map+0x2a4>
    29e8:	e5d43020 	ldrb	r3, [r4, #32]
    29ec:	e58d300c 	str	r3, [sp, #12]
    29f0:	eaffffc5 	b	290c <switch_core_media_add_payload_map+0x98>
    29f4:	e1a07003 	mov	r7, r3
    29f8:	e59d204c 	ldr	r2, [sp, #76]	; 0x4c
    29fc:	e59d3040 	ldr	r3, [sp, #64]	; 0x40
    2a00:	e3520000 	cmp	r2, #0
    2a04:	15842008 	strne	r2, [r4, #8]
    2a08:	e59d2048 	ldr	r2, [sp, #72]	; 0x48
    2a0c:	e5843004 	str	r3, [r4, #4]
    2a10:	e3520000 	cmp	r2, #0
    2a14:	1584200c 	strne	r2, [r4, #12]
    2a18:	e3550000 	cmp	r5, #0
    2a1c:	0a000017 	beq	2a80 <switch_core_media_add_payload_map+0x20c>
    2a20:	e5d53000 	ldrb	r3, [r5]
    2a24:	e3530000 	cmp	r3, #0
    2a28:	0a000014 	beq	2a80 <switch_core_media_add_payload_map+0x20c>
    2a2c:	e5940034 	ldr	r0, [r4, #52]	; 0x34
    2a30:	e3500000 	cmp	r0, #0
    2a34:	0a000006 	beq	2a54 <switch_core_media_add_payload_map+0x1e0>
    2a38:	e5d03000 	ldrb	r3, [r0]
    2a3c:	e3530000 	cmp	r3, #0
    2a40:	0a000003 	beq	2a54 <switch_core_media_add_payload_map+0x1e0>
    2a44:	e1a01005 	mov	r1, r5
    2a48:	ebfffffe 	bl	0 <strcmp>
    2a4c:	e3500000 	cmp	r0, #0
    2a50:	0a00000a 	beq	2a80 <switch_core_media_add_payload_map+0x20c>
    2a54:	e59f312c 	ldr	r3, [pc, #300]	; 2b88 <switch_core_media_add_payload_map+0x314>
    2a58:	e59f212c 	ldr	r2, [pc, #300]	; 2b8c <switch_core_media_add_payload_map+0x318>
    2a5c:	e08f3003 	add	r3, pc, r3
    2a60:	e5980000 	ldr	r0, [r8]
    2a64:	e3a0cfa1 	mov	ip, #644	; 0x284
    2a68:	e1a01005 	mov	r1, r5
    2a6c:	e08f2002 	add	r2, pc, r2
    2a70:	e2833f93 	add	r3, r3, #588	; 0x24c
    2a74:	e58dc000 	str	ip, [sp]
    2a78:	ebfffffe 	bl	0 <switch_core_perform_strdup>
    2a7c:	e5840034 	str	r0, [r4, #52]	; 0x34
    2a80:	e59d3040 	ldr	r3, [sp, #64]	; 0x40
    2a84:	e3530000 	cmp	r3, #0
    2a88:	11a02007 	movne	r2, r7
    2a8c:	03872001 	orreq	r2, r7, #1
    2a90:	e5dd3044 	ldrb	r3, [sp, #68]	; 0x44
    2a94:	e31200ff 	tst	r2, #255	; 0xff
    2a98:	e3a02001 	mov	r2, #1
    2a9c:	e5c42010 	strb	r2, [r4, #16]
    2aa0:	e5c43039 	strb	r3, [r4, #57]	; 0x39
    2aa4:	0a000003 	beq	2ab8 <switch_core_media_add_payload_map+0x244>
    2aa8:	e59d200c 	ldr	r2, [sp, #12]
    2aac:	e3520000 	cmp	r2, #0
    2ab0:	16ef3072 	uxtbne	r3, r2
    2ab4:	e5c43020 	strb	r3, [r4, #32]
    2ab8:	e35b0000 	cmp	fp, #0
    2abc:	15c4b011 	strbne	fp, [r4, #17]
    2ac0:	e3570000 	cmp	r7, #0
    2ac4:	0a000009 	beq	2af0 <switch_core_media_add_payload_map+0x27c>
    2ac8:	e59a3744 	ldr	r3, [sl, #1860]	; 0x744
    2acc:	e1530004 	cmp	r3, r4
    2ad0:	0a000005 	beq	2aec <switch_core_media_add_payload_map+0x278>
    2ad4:	e3530000 	cmp	r3, #0
    2ad8:	058a4748 	streq	r4, [sl, #1864]	; 0x748
    2adc:	058a4744 	streq	r4, [sl, #1860]	; 0x744
    2ae0:	0a000002 	beq	2af0 <switch_core_media_add_payload_map+0x27c>
    2ae4:	e59a3748 	ldr	r3, [sl, #1864]	; 0x748
    2ae8:	e5834050 	str	r4, [r3, #80]	; 0x50
    2aec:	e58a4748 	str	r4, [sl, #1864]	; 0x748
    2af0:	e59f307c 	ldr	r3, [pc, #124]	; 2b74 <switch_core_media_add_payload_map+0x300>
    2af4:	e7960003 	ldr	r0, [r6, r3]
    2af8:	ebfffffe 	bl	0 <switch_mutex_unlock>
    2afc:	e1a00004 	mov	r0, r4
    2b00:	e28dd01c 	add	sp, sp, #28
    2b04:	e8bd8ff0 	pop	{r4, r5, r6, r7, r8, r9, sl, fp, pc}
    2b08:	e59d204c 	ldr	r2, [sp, #76]	; 0x4c
    2b0c:	e1530002 	cmp	r3, r2
    2b10:	1affff7d 	bne	290c <switch_core_media_add_payload_map+0x98>
    2b14:	eaffffa4 	b	29ac <switch_core_media_add_payload_map+0x138>
    2b18:	e1a07000 	mov	r7, r0
    2b1c:	eaffffb5 	b	29f8 <switch_core_media_add_payload_map+0x184>
    2b20:	e1a07005 	mov	r7, r5
    2b24:	eaffffb3 	b	29f8 <switch_core_media_add_payload_map+0x184>
    2b28:	e3e03000 	mvn	r3, #0
    2b2c:	e58d3014 	str	r3, [sp, #20]
    2b30:	e58d400c 	str	r4, [sp, #12]
    2b34:	eaffff7c 	b	292c <switch_core_media_add_payload_map+0xb8>
    2b38:	e3e02000 	mvn	r2, #0
    2b3c:	e58d2014 	str	r2, [sp, #20]
    2b40:	e58d300c 	str	r3, [sp, #12]
    2b44:	eaffff83 	b	2958 <switch_core_media_add_payload_map+0xe4>
    2b48:	e59f3040 	ldr	r3, [pc, #64]	; 2b90 <switch_core_media_add_payload_map+0x31c>
    2b4c:	e59f0040 	ldr	r0, [pc, #64]	; 2b94 <switch_core_media_add_payload_map+0x320>
    2b50:	e59f1040 	ldr	r1, [pc, #64]	; 2b98 <switch_core_media_add_payload_map+0x324>
    2b54:	e08f3003 	add	r3, pc, r3
    2b58:	e08f0000 	add	r0, pc, r0
    2b5c:	e08f1001 	add	r1, pc, r1
    2b60:	e59f2034 	ldr	r2, [pc, #52]	; 2b9c <switch_core_media_add_payload_map+0x328>
    2b64:	e2833f8a 	add	r3, r3, #552	; 0x228
    2b68:	ebfffffe 	bl	0 <__assert_fail>
    2b6c:	000056cc 	.word	0x000056cc
    2b70:	00002c98 	.word	0x00002c98
    2b74:	00005b20 	.word	0x00005b20
    2b78:	0000023c 	.word	0x0000023c
    2b7c:	00000230 	.word	0x00000230
    2b80:	00000218 	.word	0x00000218
    2b84:	00000208 	.word	0x00000208
    2b88:	00000124 	.word	0x00000124
    2b8c:	00000118 	.word	0x00000118
    2b90:	00000034 	.word	0x00000034
    2b94:	00000034 	.word	0x00000034
    2b98:	00000034 	.word	0x00000034
    2b9c:	0000024d 	.word	0x0000024d

00002ba0 <switch_core_media_set_r_sdp_codec_string>:
    2ba0:	e92d4ff0 	push	{r4, r5, r6, r7, r8, r9, sl, fp, lr}
    2ba4:	e24ddd1f 	sub	sp, sp, #1984	; 0x7c0
    2ba8:	e24dd00c 	sub	sp, sp, #12
    2bac:	e1a04001 	mov	r4, r1
    2bb0:	e58d0018 	str	r0, [sp, #24]
    2bb4:	e58d201c 	str	r2, [sp, #28]
    2bb8:	e3a01000 	mov	r1, #0
    2bbc:	e3a02b01 	mov	r2, #1024	; 0x400
    2bc0:	e28d0038 	add	r0, sp, #56	; 0x38
    2bc4:	e1a0b003 	mov	fp, r3
    2bc8:	ebfffffe 	bl	0 <memset>
    2bcc:	e28d0e43 	add	r0, sp, #1072	; 0x430
    2bd0:	e3a01000 	mov	r1, #0
    2bd4:	e3a02c02 	mov	r2, #512	; 0x200
    2bd8:	e2800008 	add	r0, r0, #8
    2bdc:	ebfffffe 	bl	0 <memset>
    2be0:	e3a01000 	mov	r1, #0
    2be4:	e3a020c8 	mov	r2, #200	; 0xc8
    2be8:	e28d0c07 	add	r0, sp, #1792	; 0x700
    2bec:	ebfffffe 	bl	0 <memset>
    2bf0:	e59d0018 	ldr	r0, [sp, #24]
    2bf4:	ebfffffe 	bl	0 <switch_core_session_get_channel>
    2bf8:	e59dc018 	ldr	ip, [sp, #24]
    2bfc:	e35c0000 	cmp	ip, #0
    2c00:	e58d0024 	str	r0, [sp, #36]	; 0x24
    2c04:	0a000251 	beq	3550 <switch_core_media_set_r_sdp_codec_string+0x9b0>
    2c08:	e59f3964 	ldr	r3, [pc, #2404]	; 3574 <switch_core_media_set_r_sdp_codec_string+0x9d4>
    2c0c:	e59dc018 	ldr	ip, [sp, #24]
    2c10:	e79c9003 	ldr	r9, [ip, r3]
    2c14:	e3590000 	cmp	r9, #0
    2c18:	0a00012e 	beq	30d8 <switch_core_media_set_r_sdp_codec_string+0x538>
    2c1c:	e59f1954 	ldr	r1, [pc, #2388]	; 3578 <switch_core_media_set_r_sdp_codec_string+0x9d8>
    2c20:	e3a02001 	mov	r2, #1
    2c24:	e08f1001 	add	r1, pc, r1
    2c28:	e3e03000 	mvn	r3, #0
    2c2c:	ebfffffe 	bl	0 <switch_channel_get_variable_dup>
    2c30:	e2505000 	subs	r5, r0, #0
    2c34:	058d5030 	streq	r5, [sp, #48]	; 0x30
    2c38:	0a00002e 	beq	2cf8 <switch_core_media_set_r_sdp_codec_string+0x158>
    2c3c:	e59f1938 	ldr	r1, [pc, #2360]	; 357c <switch_core_media_set_r_sdp_codec_string+0x9dc>
    2c40:	e08f1001 	add	r1, pc, r1
    2c44:	ebfffffe 	bl	0 <strcasecmp>
    2c48:	e3500000 	cmp	r0, #0
    2c4c:	0a000224 	beq	34e4 <switch_core_media_set_r_sdp_codec_string+0x944>
    2c50:	e59f1928 	ldr	r1, [pc, #2344]	; 3580 <switch_core_media_set_r_sdp_codec_string+0x9e0>
    2c54:	e1a00005 	mov	r0, r5
    2c58:	e08f1001 	add	r1, pc, r1
    2c5c:	ebfffffe 	bl	0 <strcasecmp>
    2c60:	e3500000 	cmp	r0, #0
    2c64:	0a00021e 	beq	34e4 <switch_core_media_set_r_sdp_codec_string+0x944>
    2c68:	e59f1914 	ldr	r1, [pc, #2324]	; 3584 <switch_core_media_set_r_sdp_codec_string+0x9e4>
    2c6c:	e1a00005 	mov	r0, r5
    2c70:	e08f1001 	add	r1, pc, r1
    2c74:	ebfffffe 	bl	0 <strcasecmp>
    2c78:	e3500000 	cmp	r0, #0
    2c7c:	0a000218 	beq	34e4 <switch_core_media_set_r_sdp_codec_string+0x944>
    2c80:	e59f1900 	ldr	r1, [pc, #2304]	; 3588 <switch_core_media_set_r_sdp_codec_string+0x9e8>
    2c84:	e1a00005 	mov	r0, r5
    2c88:	e08f1001 	add	r1, pc, r1
    2c8c:	ebfffffe 	bl	0 <strcasecmp>
    2c90:	e3500000 	cmp	r0, #0
    2c94:	0a000212 	beq	34e4 <switch_core_media_set_r_sdp_codec_string+0x944>
    2c98:	e59f18ec 	ldr	r1, [pc, #2284]	; 358c <switch_core_media_set_r_sdp_codec_string+0x9ec>
    2c9c:	e1a00005 	mov	r0, r5
    2ca0:	e08f1001 	add	r1, pc, r1
    2ca4:	ebfffffe 	bl	0 <strcasecmp>
    2ca8:	e3500000 	cmp	r0, #0
    2cac:	0a00020c 	beq	34e4 <switch_core_media_set_r_sdp_codec_string+0x944>
    2cb0:	e59f18d8 	ldr	r1, [pc, #2264]	; 3590 <switch_core_media_set_r_sdp_codec_string+0x9f0>
    2cb4:	e1a00005 	mov	r0, r5
    2cb8:	e08f1001 	add	r1, pc, r1
    2cbc:	ebfffffe 	bl	0 <strcasecmp>
    2cc0:	e3500000 	cmp	r0, #0
    2cc4:	0a000206 	beq	34e4 <switch_core_media_set_r_sdp_codec_string+0x944>
    2cc8:	e59f18c4 	ldr	r1, [pc, #2244]	; 3594 <switch_core_media_set_r_sdp_codec_string+0x9f4>
    2ccc:	e1a00005 	mov	r0, r5
    2cd0:	e08f1001 	add	r1, pc, r1
    2cd4:	ebfffffe 	bl	0 <strcasecmp>
    2cd8:	e3500000 	cmp	r0, #0
    2cdc:	0a000200 	beq	34e4 <switch_core_media_set_r_sdp_codec_string+0x944>
    2ce0:	e1a00005 	mov	r0, r5
    2ce4:	ebfffffe 	bl	0 <switch_is_number>
    2ce8:	e3500000 	cmp	r0, #0
    2cec:	1a0001f6 	bne	34cc <switch_core_media_set_r_sdp_codec_string+0x92c>
    2cf0:	e3a0c000 	mov	ip, #0
    2cf4:	e58dc030 	str	ip, [sp, #48]	; 0x30
    2cf8:	e3540000 	cmp	r4, #0
    2cfc:	0a0001eb 	beq	34b0 <switch_core_media_set_r_sdp_codec_string+0x910>
    2d00:	e5d43000 	ldrb	r3, [r4]
    2d04:	e3530000 	cmp	r3, #0
    2d08:	0a0001e8 	beq	34b0 <switch_core_media_set_r_sdp_codec_string+0x910>
    2d0c:	e1a00004 	mov	r0, r4
    2d10:	ebfffffe 	bl	0 <__strdup>
    2d14:	e2504000 	subs	r4, r0, #0
    2d18:	03a03001 	moveq	r3, #1
    2d1c:	01a07004 	moveq	r7, r4
    2d20:	0a00000f 	beq	2d64 <switch_core_media_set_r_sdp_codec_string+0x1c4>
    2d24:	e28d2e63 	add	r2, sp, #1584	; 0x630
    2d28:	e3a0102c 	mov	r1, #44	; 0x2c
    2d2c:	e2822008 	add	r2, r2, #8
    2d30:	e3a03032 	mov	r3, #50	; 0x32
    2d34:	ebfffffe 	bl	0 <switch_separate_string>
    2d38:	e28d2e63 	add	r2, sp, #1584	; 0x630
    2d3c:	e3a01032 	mov	r1, #50	; 0x32
    2d40:	e2822008 	add	r2, r2, #8
    2d44:	e1a03000 	mov	r3, r0
    2d48:	e28d0c07 	add	r0, sp, #1792	; 0x700
    2d4c:	ebfffffe 	bl	0 <switch_loadable_module_get_codecs_sorted>
    2d50:	e1a07000 	mov	r7, r0
    2d54:	e1a00004 	mov	r0, r4
    2d58:	ebfffffe 	bl	0 <free>
    2d5c:	e2773001 	rsbs	r3, r7, #1
    2d60:	33a03000 	movcc	r3, #0
    2d64:	e59dc024 	ldr	ip, [sp, #36]	; 0x24
    2d68:	e35c0000 	cmp	ip, #0
    2d6c:	03833001 	orreq	r3, r3, #1
    2d70:	e3530000 	cmp	r3, #0
    2d74:	1a0000d7 	bne	30d8 <switch_core_media_set_r_sdp_codec_string+0x538>
    2d78:	e59dc01c 	ldr	ip, [sp, #28]
    2d7c:	e59c4034 	ldr	r4, [ip, #52]	; 0x34
    2d80:	e3540000 	cmp	r4, #0
    2d84:	0a00000e 	beq	2dc4 <switch_core_media_set_r_sdp_codec_string+0x224>
    2d88:	e59f5808 	ldr	r5, [pc, #2056]	; 3598 <switch_core_media_set_r_sdp_codec_string+0x9f8>
    2d8c:	e08f5005 	add	r5, pc, r5
    2d90:	e5940008 	ldr	r0, [r4, #8]
    2d94:	e3500000 	cmp	r0, #0
    2d98:	0a000006 	beq	2db8 <switch_core_media_set_r_sdp_codec_string+0x218>
    2d9c:	e5d03000 	ldrb	r3, [r0]
    2da0:	e3530000 	cmp	r3, #0
    2da4:	0a000003 	beq	2db8 <switch_core_media_set_r_sdp_codec_string+0x218>
    2da8:	e1a01005 	mov	r1, r5
    2dac:	ebfffffe 	bl	0 <strcasecmp>
    2db0:	e3500000 	cmp	r0, #0
    2db4:	0a0001df 	beq	3538 <switch_core_media_set_r_sdp_codec_string+0x998>
    2db8:	e5944004 	ldr	r4, [r4, #4]
    2dbc:	e3540000 	cmp	r4, #0
    2dc0:	1afffff2 	bne	2d90 <switch_core_media_set_r_sdp_codec_string+0x1f0>
    2dc4:	e58d4028 	str	r4, [sp, #40]	; 0x28
    2dc8:	e59d101c 	ldr	r1, [sp, #28]
    2dcc:	e59d0018 	ldr	r0, [sp, #24]
    2dd0:	ebfff4cd 	bl	10c <switch_core_media_find_zrtp_hash>
    2dd4:	e59d0018 	ldr	r0, [sp, #24]
    2dd8:	ebfffffe 	bl	24ec <switch_core_media_pass_zrtp_hash>
    2ddc:	e59dc01c 	ldr	ip, [sp, #28]
    2de0:	e59c603c 	ldr	r6, [ip, #60]	; 0x3c
    2de4:	e3560000 	cmp	r6, #0
    2de8:	0a0000b7 	beq	30cc <switch_core_media_set_r_sdp_codec_string+0x52c>
    2dec:	e59f47a8 	ldr	r4, [pc, #1960]	; 359c <switch_core_media_set_r_sdp_codec_string+0x9fc>
    2df0:	e58d7020 	str	r7, [sp, #32]
    2df4:	e08f4004 	add	r4, pc, r4
    2df8:	e58d902c 	str	r9, [sp, #44]	; 0x2c
    2dfc:	e59da018 	ldr	sl, [sp, #24]
    2e00:	ea000002 	b	2e10 <switch_core_media_set_r_sdp_codec_string+0x270>
    2e04:	e5966004 	ldr	r6, [r6, #4]
    2e08:	e3560000 	cmp	r6, #0
    2e0c:	0a000033 	beq	2ee0 <switch_core_media_set_r_sdp_codec_string+0x340>
    2e10:	e596300c 	ldr	r3, [r6, #12]
    2e14:	e2433002 	sub	r3, r3, #2
    2e18:	e3530001 	cmp	r3, #1
    2e1c:	8afffff8 	bhi	2e04 <switch_core_media_set_r_sdp_codec_string+0x264>
    2e20:	e5963014 	ldr	r3, [r6, #20]
    2e24:	e3530000 	cmp	r3, #0
    2e28:	0afffff5 	beq	2e04 <switch_core_media_set_r_sdp_codec_string+0x264>
    2e2c:	e5965028 	ldr	r5, [r6, #40]	; 0x28
    2e30:	e3550000 	cmp	r5, #0
    2e34:	0afffff2 	beq	2e04 <switch_core_media_set_r_sdp_codec_string+0x264>
    2e38:	e59d7028 	ldr	r7, [sp, #40]	; 0x28
    2e3c:	e3a08000 	mov	r8, #0
    2e40:	e596903c 	ldr	r9, [r6, #60]	; 0x3c
    2e44:	e3590000 	cmp	r9, #0
    2e48:	0a00000f 	beq	2e8c <switch_core_media_set_r_sdp_codec_string+0x2ec>
    2e4c:	e5990008 	ldr	r0, [r9, #8]
    2e50:	e3500000 	cmp	r0, #0
    2e54:	0a000009 	beq	2e80 <switch_core_media_set_r_sdp_codec_string+0x2e0>
    2e58:	e5d03000 	ldrb	r3, [r0]
    2e5c:	e3530000 	cmp	r3, #0
    2e60:	0a000006 	beq	2e80 <switch_core_media_set_r_sdp_codec_string+0x2e0>
    2e64:	e1a01004 	mov	r1, r4
    2e68:	ebfffffe 	bl	0 <strcasecmp>
    2e6c:	e3500000 	cmp	r0, #0
    2e70:	1a000002 	bne	2e80 <switch_core_media_set_r_sdp_codec_string+0x2e0>
    2e74:	e599300c 	ldr	r3, [r9, #12]
    2e78:	e3530000 	cmp	r3, #0
    2e7c:	1a000098 	bne	30e4 <switch_core_media_set_r_sdp_codec_string+0x544>
    2e80:	e5999004 	ldr	r9, [r9, #4]
    2e84:	e3590000 	cmp	r9, #0
    2e88:	1affffef 	bne	2e4c <switch_core_media_set_r_sdp_codec_string+0x2ac>
    2e8c:	e5952008 	ldr	r2, [r5, #8]
    2e90:	e5953014 	ldr	r3, [r5, #20]
    2e94:	e596100c 	ldr	r1, [r6, #12]
    2e98:	e58db000 	str	fp, [sp]
    2e9c:	e5d5c018 	ldrb	ip, [r5, #24]
    2ea0:	e2511002 	subs	r1, r1, #2
    2ea4:	13a01001 	movne	r1, #1
    2ea8:	e1a0000a 	mov	r0, sl
    2eac:	e1a0c0ac 	lsr	ip, ip, #1
    2eb0:	e58dc004 	str	ip, [sp, #4]
    2eb4:	e595c00c 	ldr	ip, [r5, #12]
    2eb8:	e58d700c 	str	r7, [sp, #12]
    2ebc:	e58dc008 	str	ip, [sp, #8]
    2ec0:	e58d8010 	str	r8, [sp, #16]
    2ec4:	ebfffffe 	bl	2874 <switch_core_media_add_payload_map>
    2ec8:	e5955004 	ldr	r5, [r5, #4]
    2ecc:	e3550000 	cmp	r5, #0
    2ed0:	1affffda 	bne	2e40 <switch_core_media_set_r_sdp_codec_string+0x2a0>
    2ed4:	e5966004 	ldr	r6, [r6, #4]
    2ed8:	e3560000 	cmp	r6, #0
    2edc:	1affffcb 	bne	2e10 <switch_core_media_set_r_sdp_codec_string+0x270>
    2ee0:	e59dc01c 	ldr	ip, [sp, #28]
    2ee4:	e59d7020 	ldr	r7, [sp, #32]
    2ee8:	e59d902c 	ldr	r9, [sp, #44]	; 0x2c
    2eec:	e59c803c 	ldr	r8, [ip, #60]	; 0x3c
    2ef0:	e3580000 	cmp	r8, #0
    2ef4:	0a000074 	beq	30cc <switch_core_media_set_r_sdp_codec_string+0x52c>
    2ef8:	e59fc6a0 	ldr	ip, [pc, #1696]	; 35a0 <switch_core_media_set_r_sdp_codec_string+0xa00>
    2efc:	e59fa6a0 	ldr	sl, [pc, #1696]	; 35a4 <switch_core_media_set_r_sdp_codec_string+0xa04>
    2f00:	e08fc00c 	add	ip, pc, ip
    2f04:	e58dc02c 	str	ip, [sp, #44]	; 0x2c
    2f08:	e59fc698 	ldr	ip, [pc, #1688]	; 35a8 <switch_core_media_set_r_sdp_codec_string+0xa08>
    2f0c:	e08fc00c 	add	ip, pc, ip
    2f10:	e58dc034 	str	ip, [sp, #52]	; 0x34
    2f14:	e598400c 	ldr	r4, [r8, #12]
    2f18:	e3540008 	cmp	r4, #8
    2f1c:	0a000079 	beq	3108 <switch_core_media_set_r_sdp_codec_string+0x568>
    2f20:	e3540002 	cmp	r4, #2
    2f24:	0a000086 	beq	3144 <switch_core_media_set_r_sdp_codec_string+0x5a4>
    2f28:	e3540003 	cmp	r4, #3
    2f2c:	1a000063 	bne	30c0 <switch_core_media_set_r_sdp_codec_string+0x520>
    2f30:	e5983014 	ldr	r3, [r8, #20]
    2f34:	e3530000 	cmp	r3, #0
    2f38:	0a000060 	beq	30c0 <switch_core_media_set_r_sdp_codec_string+0x520>
    2f3c:	e5983030 	ldr	r3, [r8, #48]	; 0x30
    2f40:	e59dc01c 	ldr	ip, [sp, #28]
    2f44:	e3530000 	cmp	r3, #0
    2f48:	e59c2024 	ldr	r2, [ip, #36]	; 0x24
    2f4c:	0a000145 	beq	3468 <switch_core_media_set_r_sdp_codec_string+0x8c8>
    2f50:	e3570000 	cmp	r7, #0
    2f54:	c28d6e6f 	addgt	r6, sp, #1776	; 0x6f0
    2f58:	c286600c 	addgt	r6, r6, #12
    2f5c:	c3a04000 	movgt	r4, #0
    2f60:	ca000003 	bgt	2f74 <switch_core_media_set_r_sdp_codec_string+0x3d4>
    2f64:	ea000055 	b	30c0 <switch_core_media_set_r_sdp_codec_string+0x520>
    2f68:	e2844001 	add	r4, r4, #1
    2f6c:	e1540007 	cmp	r4, r7
    2f70:	0a000052 	beq	30c0 <switch_core_media_set_r_sdp_codec_string+0x520>
    2f74:	e5b65004 	ldr	r5, [r6, #4]!
    2f78:	e5953000 	ldr	r3, [r5]
    2f7c:	e3530001 	cmp	r3, #1
    2f80:	1afffff8 	bne	2f68 <switch_core_media_set_r_sdp_codec_string+0x3c8>
    2f84:	e5d53004 	ldrb	r3, [r5, #4]
    2f88:	e3130080 	tst	r3, #128	; 0x80
    2f8c:	1afffff5 	bne	2f68 <switch_core_media_set_r_sdp_codec_string+0x3c8>
    2f90:	e28d1d1f 	add	r1, sp, #1984	; 0x7c0
    2f94:	e2811008 	add	r1, r1, #8
    2f98:	e0813103 	add	r3, r1, r3, lsl #2
    2f9c:	e5133390 	ldr	r3, [r3, #-912]	; 0x390
    2fa0:	e3530000 	cmp	r3, #0
    2fa4:	1affffef 	bne	2f68 <switch_core_media_set_r_sdp_codec_string+0x3c8>
    2fa8:	e59dc018 	ldr	ip, [sp, #24]
    2fac:	e59c0018 	ldr	r0, [ip, #24]
    2fb0:	ebfffffe 	bl	0 <switch_channel_direction>
    2fb4:	e3500000 	cmp	r0, #0
    2fb8:	0a000106 	beq	33d8 <switch_core_media_set_r_sdp_codec_string+0x838>
    2fbc:	e598b028 	ldr	fp, [r8, #40]	; 0x28
    2fc0:	e35b0000 	cmp	fp, #0
    2fc4:	1a00000d 	bne	3000 <switch_core_media_set_r_sdp_codec_string+0x460>
    2fc8:	eaffffe6 	b	2f68 <switch_core_media_set_r_sdp_codec_string+0x3c8>
    2fcc:	e799200a 	ldr	r2, [r9, sl]
    2fd0:	e5922010 	ldr	r2, [r2, #16]
    2fd4:	e3120001 	tst	r2, #1
    2fd8:	1a000016 	bne	3038 <switch_core_media_set_r_sdp_codec_string+0x498>
    2fdc:	e5951008 	ldr	r1, [r5, #8]
    2fe0:	ebfffffe 	bl	0 <strcasecmp>
    2fe4:	e2700001 	rsbs	r0, r0, #1
    2fe8:	33a00000 	movcc	r0, #0
    2fec:	e3500000 	cmp	r0, #0
    2ff0:	1a000018 	bne	3058 <switch_core_media_set_r_sdp_codec_string+0x4b8>
    2ff4:	e59bb004 	ldr	fp, [fp, #4]
    2ff8:	e35b0000 	cmp	fp, #0
    2ffc:	0affffd9 	beq	2f68 <switch_core_media_set_r_sdp_codec_string+0x3c8>
    3000:	e5db3018 	ldrb	r3, [fp, #24]
    3004:	e28d1d1f 	add	r1, sp, #1984	; 0x7c0
    3008:	e2811008 	add	r1, r1, #8
    300c:	e1a030a3 	lsr	r3, r3, #1
    3010:	e0812103 	add	r2, r1, r3, lsl #2
    3014:	e5122390 	ldr	r2, [r2, #-912]	; 0x390
    3018:	e3520000 	cmp	r2, #0
    301c:	1afffff4 	bne	2ff4 <switch_core_media_set_r_sdp_codec_string+0x454>
    3020:	e59b0008 	ldr	r0, [fp, #8]
    3024:	e3500000 	cmp	r0, #0
    3028:	0a000002 	beq	3038 <switch_core_media_set_r_sdp_codec_string+0x498>
    302c:	e5d02000 	ldrb	r2, [r0]
    3030:	e3520000 	cmp	r2, #0
    3034:	1affffe4 	bne	2fcc <switch_core_media_set_r_sdp_codec_string+0x42c>
    3038:	e353005f 	cmp	r3, #95	; 0x5f
    303c:	ca00002e 	bgt	30fc <switch_core_media_set_r_sdp_codec_string+0x55c>
    3040:	e5d52004 	ldrb	r2, [r5, #4]
    3044:	e0622003 	rsb	r2, r2, r3
    3048:	e2720000 	rsbs	r0, r2, #0
    304c:	e0a00002 	adc	r0, r0, r2
    3050:	e3500000 	cmp	r0, #0
    3054:	0affffe6 	beq	2ff4 <switch_core_media_set_r_sdp_codec_string+0x454>
    3058:	e59dc028 	ldr	ip, [sp, #40]	; 0x28
    305c:	e28d0038 	add	r0, sp, #56	; 0x38
    3060:	e35c0000 	cmp	ip, #0
    3064:	da000128 	ble	350c <switch_core_media_set_r_sdp_codec_string+0x96c>
    3068:	ebfffffe 	bl	0 <strlen>
    306c:	e59bc00c 	ldr	ip, [fp, #12]
    3070:	e28d2038 	add	r2, sp, #56	; 0x38
    3074:	e5953008 	ldr	r3, [r5, #8]
    3078:	e58dc000 	str	ip, [sp]
    307c:	e59dc028 	ldr	ip, [sp, #40]	; 0x28
    3080:	e58dc004 	str	ip, [sp, #4]
    3084:	e1a01000 	mov	r1, r0
    3088:	e0820000 	add	r0, r2, r0
    308c:	e59f2518 	ldr	r2, [pc, #1304]	; 35ac <switch_core_media_set_r_sdp_codec_string+0xa0c>
    3090:	e2611b01 	rsb	r1, r1, #1024	; 0x400
    3094:	e08f2002 	add	r2, pc, r2
    3098:	ebfffffe 	bl	0 <switch_snprintf>
    309c:	e5d53004 	ldrb	r3, [r5, #4]
    30a0:	e28dcd1f 	add	ip, sp, #1984	; 0x7c0
    30a4:	e28cc008 	add	ip, ip, #8
    30a8:	e2844001 	add	r4, r4, #1
    30ac:	e08c3103 	add	r3, ip, r3, lsl #2
    30b0:	e3a02001 	mov	r2, #1
    30b4:	e1540007 	cmp	r4, r7
    30b8:	e5032390 	str	r2, [r3, #-912]	; 0x390
    30bc:	1affffac 	bne	2f74 <switch_core_media_set_r_sdp_codec_string+0x3d4>
    30c0:	e5988004 	ldr	r8, [r8, #4]
    30c4:	e3580000 	cmp	r8, #0
    30c8:	1affff91 	bne	2f14 <switch_core_media_set_r_sdp_codec_string+0x374>
    30cc:	e5dd3038 	ldrb	r3, [sp, #56]	; 0x38
    30d0:	e353002c 	cmp	r3, #44	; 0x2c
    30d4:	0a000105 	beq	34f0 <switch_core_media_set_r_sdp_codec_string+0x950>
    30d8:	e28ddff3 	add	sp, sp, #972	; 0x3cc
    30dc:	e28ddb01 	add	sp, sp, #1024	; 0x400
    30e0:	e8bd8ff0 	pop	{r4, r5, r6, r7, r8, r9, sl, fp, pc}
    30e4:	e1a01000 	mov	r1, r0
    30e8:	e3a0200a 	mov	r2, #10
    30ec:	e1a00003 	mov	r0, r3
    30f0:	ebfffffe 	bl	0 <strtol>
    30f4:	e1a07000 	mov	r7, r0
    30f8:	eaffff63 	b	2e8c <switch_core_media_set_r_sdp_codec_string+0x2ec>
    30fc:	e3500000 	cmp	r0, #0
    3100:	1affffb5 	bne	2fdc <switch_core_media_set_r_sdp_codec_string+0x43c>
    3104:	eaffffba 	b	2ff4 <switch_core_media_set_r_sdp_codec_string+0x454>
    3108:	e5983014 	ldr	r3, [r8, #20]
    310c:	e3530000 	cmp	r3, #0
    3110:	0affffea 	beq	30c0 <switch_core_media_set_r_sdp_codec_string+0x520>
    3114:	e28d0038 	add	r0, sp, #56	; 0x38
    3118:	ebfffffe 	bl	0 <strlen>
    311c:	e28d2038 	add	r2, sp, #56	; 0x38
    3120:	e1a01000 	mov	r1, r0
    3124:	e2611b01 	rsb	r1, r1, #1024	; 0x400
    3128:	e0820000 	add	r0, r2, r0
    312c:	e59d202c 	ldr	r2, [sp, #44]	; 0x2c
    3130:	ebfffffe 	bl	0 <switch_snprintf>
    3134:	e5988004 	ldr	r8, [r8, #4]
    3138:	e3580000 	cmp	r8, #0
    313c:	1affff74 	bne	2f14 <switch_core_media_set_r_sdp_codec_string+0x374>
    3140:	eaffffe1 	b	30cc <switch_core_media_set_r_sdp_codec_string+0x52c>
    3144:	e5983014 	ldr	r3, [r8, #20]
    3148:	e3530000 	cmp	r3, #0
    314c:	0affffdb 	beq	30c0 <switch_core_media_set_r_sdp_codec_string+0x520>
    3150:	e598403c 	ldr	r4, [r8, #60]	; 0x3c
    3154:	e3540000 	cmp	r4, #0
    3158:	0a000011 	beq	31a4 <switch_core_media_set_r_sdp_codec_string+0x604>
    315c:	e59f544c 	ldr	r5, [pc, #1100]	; 35b0 <switch_core_media_set_r_sdp_codec_string+0xa10>
    3160:	e08f5005 	add	r5, pc, r5
    3164:	e5940008 	ldr	r0, [r4, #8]
    3168:	e3500000 	cmp	r0, #0
    316c:	0a000009 	beq	3198 <switch_core_media_set_r_sdp_codec_string+0x5f8>
    3170:	e5d03000 	ldrb	r3, [r0]
    3174:	e3530000 	cmp	r3, #0
    3178:	0a000006 	beq	3198 <switch_core_media_set_r_sdp_codec_string+0x5f8>
    317c:	e1a01005 	mov	r1, r5
    3180:	ebfffffe 	bl	0 <strcasecmp>
    3184:	e3500000 	cmp	r0, #0
    3188:	1a000002 	bne	3198 <switch_core_media_set_r_sdp_codec_string+0x5f8>
    318c:	e594300c 	ldr	r3, [r4, #12]
    3190:	e3530000 	cmp	r3, #0
    3194:	1a000096 	bne	33f4 <switch_core_media_set_r_sdp_codec_string+0x854>
    3198:	e5944004 	ldr	r4, [r4, #4]
    319c:	e3540000 	cmp	r4, #0
    31a0:	1affffef 	bne	3164 <switch_core_media_set_r_sdp_codec_string+0x5c4>
    31a4:	e59dc028 	ldr	ip, [sp, #40]	; 0x28
    31a8:	e5983030 	ldr	r3, [r8, #48]	; 0x30
    31ac:	e58dc020 	str	ip, [sp, #32]
    31b0:	e59dc01c 	ldr	ip, [sp, #28]
    31b4:	e3530000 	cmp	r3, #0
    31b8:	e59d0024 	ldr	r0, [sp, #36]	; 0x24
    31bc:	e59c2024 	ldr	r2, [ip, #36]	; 0x24
    31c0:	0a000096 	beq	3420 <switch_core_media_set_r_sdp_codec_string+0x880>
    31c4:	ebfffffe 	bl	0 <switch_channel_direction>
    31c8:	e3500000 	cmp	r0, #0
    31cc:	0a000047 	beq	32f0 <switch_core_media_set_r_sdp_codec_string+0x750>
    31d0:	e59dc030 	ldr	ip, [sp, #48]	; 0x30
    31d4:	e35c0000 	cmp	ip, #0
    31d8:	1a000044 	bne	32f0 <switch_core_media_set_r_sdp_codec_string+0x750>
    31dc:	e3570000 	cmp	r7, #0
    31e0:	c59d4030 	ldrgt	r4, [sp, #48]	; 0x30
    31e4:	daffffb5 	ble	30c0 <switch_core_media_set_r_sdp_codec_string+0x520>
    31e8:	e28d3c07 	add	r3, sp, #1792	; 0x700
    31ec:	e7936104 	ldr	r6, [r3, r4, lsl #2]
    31f0:	e5963000 	ldr	r3, [r6]
    31f4:	e3530000 	cmp	r3, #0
    31f8:	1a000032 	bne	32c8 <switch_core_media_set_r_sdp_codec_string+0x728>
    31fc:	e5d6b004 	ldrb	fp, [r6, #4]
    3200:	e31b0080 	tst	fp, #128	; 0x80
    3204:	1a00002f 	bne	32c8 <switch_core_media_set_r_sdp_codec_string+0x728>
    3208:	e28dcd1f 	add	ip, sp, #1984	; 0x7c0
    320c:	e28cc008 	add	ip, ip, #8
    3210:	e08c310b 	add	r3, ip, fp, lsl #2
    3214:	e5133390 	ldr	r3, [r3, #-912]	; 0x390
    3218:	e3530000 	cmp	r3, #0
    321c:	1a000029 	bne	32c8 <switch_core_media_set_r_sdp_codec_string+0x728>
    3220:	e5985028 	ldr	r5, [r8, #40]	; 0x28
    3224:	e3550000 	cmp	r5, #0
    3228:	1a00000d 	bne	3264 <switch_core_media_set_r_sdp_codec_string+0x6c4>
    322c:	ea000025 	b	32c8 <switch_core_media_set_r_sdp_codec_string+0x728>
    3230:	e799200a 	ldr	r2, [r9, sl]
    3234:	e5922010 	ldr	r2, [r2, #16]
    3238:	e3120001 	tst	r2, #1
    323c:	1a000016 	bne	329c <switch_core_media_set_r_sdp_codec_string+0x6fc>
    3240:	e5961008 	ldr	r1, [r6, #8]
    3244:	ebfffffe 	bl	0 <strcasecmp>
    3248:	e2700001 	rsbs	r0, r0, #1
    324c:	33a00000 	movcc	r0, #0
    3250:	e3500000 	cmp	r0, #0
    3254:	1a000017 	bne	32b8 <switch_core_media_set_r_sdp_codec_string+0x718>
    3258:	e5955004 	ldr	r5, [r5, #4]
    325c:	e3550000 	cmp	r5, #0
    3260:	0a000018 	beq	32c8 <switch_core_media_set_r_sdp_codec_string+0x728>
    3264:	e5d53018 	ldrb	r3, [r5, #24]
    3268:	e28d1d1f 	add	r1, sp, #1984	; 0x7c0
    326c:	e2811008 	add	r1, r1, #8
    3270:	e1a030a3 	lsr	r3, r3, #1
    3274:	e0812103 	add	r2, r1, r3, lsl #2
    3278:	e5122390 	ldr	r2, [r2, #-912]	; 0x390
    327c:	e3520000 	cmp	r2, #0
    3280:	1afffff4 	bne	3258 <switch_core_media_set_r_sdp_codec_string+0x6b8>
    3284:	e5950008 	ldr	r0, [r5, #8]
    3288:	e3500000 	cmp	r0, #0
    328c:	0a000002 	beq	329c <switch_core_media_set_r_sdp_codec_string+0x6fc>
    3290:	e5d02000 	ldrb	r2, [r0]
    3294:	e3520000 	cmp	r2, #0
    3298:	1affffe4 	bne	3230 <switch_core_media_set_r_sdp_codec_string+0x690>
    329c:	e353005f 	cmp	r3, #95	; 0x5f
    32a0:	ca00000f 	bgt	32e4 <switch_core_media_set_r_sdp_codec_string+0x744>
    32a4:	e063100b 	rsb	r1, r3, fp
    32a8:	e2710000 	rsbs	r0, r1, #0
    32ac:	e0a00001 	adc	r0, r0, r1
    32b0:	e3500000 	cmp	r0, #0
    32b4:	0affffe7 	beq	3258 <switch_core_media_set_r_sdp_codec_string+0x6b8>
    32b8:	e1a00005 	mov	r0, r5
    32bc:	e59d1020 	ldr	r1, [sp, #32]
    32c0:	e28d2038 	add	r2, sp, #56	; 0x38
    32c4:	ebfff8ac 	bl	157c <add_audio_codec.constprop.7>
    32c8:	e2844001 	add	r4, r4, #1
    32cc:	e1540007 	cmp	r4, r7
    32d0:	1affffc4 	bne	31e8 <switch_core_media_set_r_sdp_codec_string+0x648>
    32d4:	e5988004 	ldr	r8, [r8, #4]
    32d8:	e3580000 	cmp	r8, #0
    32dc:	1affff0c 	bne	2f14 <switch_core_media_set_r_sdp_codec_string+0x374>
    32e0:	eaffff79 	b	30cc <switch_core_media_set_r_sdp_codec_string+0x52c>
    32e4:	e3500000 	cmp	r0, #0
    32e8:	1affffd4 	bne	3240 <switch_core_media_set_r_sdp_codec_string+0x6a0>
    32ec:	eaffffd9 	b	3258 <switch_core_media_set_r_sdp_codec_string+0x6b8>
    32f0:	e5984028 	ldr	r4, [r8, #40]	; 0x28
    32f4:	e3540000 	cmp	r4, #0
    32f8:	0affff70 	beq	30c0 <switch_core_media_set_r_sdp_codec_string+0x520>
    32fc:	e5d4b018 	ldrb	fp, [r4, #24]
    3300:	e28d1d1f 	add	r1, sp, #1984	; 0x7c0
    3304:	e2811008 	add	r1, r1, #8
    3308:	e1a0b0ab 	lsr	fp, fp, #1
    330c:	e081310b 	add	r3, r1, fp, lsl #2
    3310:	e5135390 	ldr	r5, [r3, #-912]	; 0x390
    3314:	e3550000 	cmp	r5, #0
    3318:	1a000024 	bne	33b0 <switch_core_media_set_r_sdp_codec_string+0x810>
    331c:	e3570000 	cmp	r7, #0
    3320:	da000022 	ble	33b0 <switch_core_media_set_r_sdp_codec_string+0x810>
    3324:	e5946008 	ldr	r6, [r4, #8]
    3328:	ea00000d 	b	3364 <switch_core_media_set_r_sdp_codec_string+0x7c4>
    332c:	e799200a 	ldr	r2, [r9, sl]
    3330:	e5922010 	ldr	r2, [r2, #16]
    3334:	e3120001 	tst	r2, #1
    3338:	1a000010 	bne	3380 <switch_core_media_set_r_sdp_codec_string+0x7e0>
    333c:	e1a00006 	mov	r0, r6
    3340:	e5931008 	ldr	r1, [r3, #8]
    3344:	ebfffffe 	bl	0 <strcasecmp>
    3348:	e2700001 	rsbs	r0, r0, #1
    334c:	33a00000 	movcc	r0, #0
    3350:	e3500000 	cmp	r0, #0
    3354:	1a000011 	bne	33a0 <switch_core_media_set_r_sdp_codec_string+0x800>
    3358:	e2855001 	add	r5, r5, #1
    335c:	e1550007 	cmp	r5, r7
    3360:	0a000012 	beq	33b0 <switch_core_media_set_r_sdp_codec_string+0x810>
    3364:	e28d2c07 	add	r2, sp, #1792	; 0x700
    3368:	e3560000 	cmp	r6, #0
    336c:	e7923105 	ldr	r3, [r2, r5, lsl #2]
    3370:	0a000002 	beq	3380 <switch_core_media_set_r_sdp_codec_string+0x7e0>
    3374:	e5d62000 	ldrb	r2, [r6]
    3378:	e3520000 	cmp	r2, #0
    337c:	1affffea 	bne	332c <switch_core_media_set_r_sdp_codec_string+0x78c>
    3380:	e35b005f 	cmp	fp, #95	; 0x5f
    3384:	ca000010 	bgt	33cc <switch_core_media_set_r_sdp_codec_string+0x82c>
    3388:	e5d30004 	ldrb	r0, [r3, #4]
    338c:	e060c00b 	rsb	ip, r0, fp
    3390:	e27c0000 	rsbs	r0, ip, #0
    3394:	e0a0000c 	adc	r0, r0, ip
    3398:	e3500000 	cmp	r0, #0
    339c:	0affffed 	beq	3358 <switch_core_media_set_r_sdp_codec_string+0x7b8>
    33a0:	e1a00004 	mov	r0, r4
    33a4:	e59d1020 	ldr	r1, [sp, #32]
    33a8:	e28d2038 	add	r2, sp, #56	; 0x38
    33ac:	ebfff872 	bl	157c <add_audio_codec.constprop.7>
    33b0:	e5944004 	ldr	r4, [r4, #4]
    33b4:	e3540000 	cmp	r4, #0
    33b8:	1affffcf 	bne	32fc <switch_core_media_set_r_sdp_codec_string+0x75c>
    33bc:	e5988004 	ldr	r8, [r8, #4]
    33c0:	e3580000 	cmp	r8, #0
    33c4:	1afffed2 	bne	2f14 <switch_core_media_set_r_sdp_codec_string+0x374>
    33c8:	eaffff3f 	b	30cc <switch_core_media_set_r_sdp_codec_string+0x52c>
    33cc:	e3560000 	cmp	r6, #0
    33d0:	1affffd9 	bne	333c <switch_core_media_set_r_sdp_codec_string+0x79c>
    33d4:	eaffffdf 	b	3358 <switch_core_media_set_r_sdp_codec_string+0x7b8>
    33d8:	e59dc018 	ldr	ip, [sp, #24]
    33dc:	e3a01072 	mov	r1, #114	; 0x72
    33e0:	e59c0018 	ldr	r0, [ip, #24]
    33e4:	ebfffffe 	bl	0 <switch_channel_test_flag>
    33e8:	e3500000 	cmp	r0, #0
    33ec:	1afffedd 	bne	2f68 <switch_core_media_set_r_sdp_codec_string+0x3c8>
    33f0:	eafffef1 	b	2fbc <switch_core_media_set_r_sdp_codec_string+0x41c>
    33f4:	e1a01000 	mov	r1, r0
    33f8:	e3a0200a 	mov	r2, #10
    33fc:	e1a00003 	mov	r0, r3
    3400:	ebfffffe 	bl	0 <strtol>
    3404:	e5983030 	ldr	r3, [r8, #48]	; 0x30
    3408:	e59dc01c 	ldr	ip, [sp, #28]
    340c:	e3530000 	cmp	r3, #0
    3410:	e59c2024 	ldr	r2, [ip, #36]	; 0x24
    3414:	e58d0020 	str	r0, [sp, #32]
    3418:	e59d0024 	ldr	r0, [sp, #36]	; 0x24
    341c:	1affff68 	bne	31c4 <switch_core_media_set_r_sdp_codec_string+0x624>
    3420:	e3520000 	cmp	r2, #0
    3424:	1affff66 	bne	31c4 <switch_core_media_set_r_sdp_codec_string+0x624>
    3428:	ebfffffe 	bl	0 <switch_channel_get_session>
    342c:	e59f2180 	ldr	r2, [pc, #384]	; 35b4 <switch_core_media_set_r_sdp_codec_string+0xa14>
    3430:	e59f1180 	ldr	r1, [pc, #384]	; 35b8 <switch_core_media_set_r_sdp_codec_string+0xa18>
    3434:	e59fe180 	ldr	lr, [pc, #384]	; 35bc <switch_core_media_set_r_sdp_codec_string+0xa1c>
    3438:	e3a0c003 	mov	ip, #3
    343c:	e08f2002 	add	r2, pc, r2
    3440:	e08fe00e 	add	lr, pc, lr
    3444:	e08f1001 	add	r1, pc, r1
    3448:	e2822fa7 	add	r2, r2, #668	; 0x29c
    344c:	e59f316c 	ldr	r3, [pc, #364]	; 35c0 <switch_core_media_set_r_sdp_codec_string+0xa20>
    3450:	e58dc004 	str	ip, [sp, #4]
    3454:	e58de008 	str	lr, [sp, #8]
    3458:	e58d0000 	str	r0, [sp]
    345c:	e1a0000c 	mov	r0, ip
    3460:	ebfffffe 	bl	0 <switch_log_printf>
    3464:	eaffff18 	b	30cc <switch_core_media_set_r_sdp_codec_string+0x52c>
    3468:	e3520000 	cmp	r2, #0
    346c:	1afffeb7 	bne	2f50 <switch_core_media_set_r_sdp_codec_string+0x3b0>
    3470:	e59d0024 	ldr	r0, [sp, #36]	; 0x24
    3474:	ebfffffe 	bl	0 <switch_channel_get_session>
    3478:	e59f2144 	ldr	r2, [pc, #324]	; 35c4 <switch_core_media_set_r_sdp_codec_string+0xa24>
    347c:	e59f1144 	ldr	r1, [pc, #324]	; 35c8 <switch_core_media_set_r_sdp_codec_string+0xa28>
    3480:	e59fc144 	ldr	ip, [pc, #324]	; 35cc <switch_core_media_set_r_sdp_codec_string+0xa2c>
    3484:	e08f2002 	add	r2, pc, r2
    3488:	e08fc00c 	add	ip, pc, ip
    348c:	e08f1001 	add	r1, pc, r1
    3490:	e2822fa7 	add	r2, r2, #668	; 0x29c
    3494:	e59f3134 	ldr	r3, [pc, #308]	; 35d0 <switch_core_media_set_r_sdp_codec_string+0xa30>
    3498:	e58d4004 	str	r4, [sp, #4]
    349c:	e58dc008 	str	ip, [sp, #8]
    34a0:	e58d0000 	str	r0, [sp]
    34a4:	e1a00004 	mov	r0, r4
    34a8:	ebfffffe 	bl	0 <switch_log_printf>
    34ac:	eaffff06 	b	30cc <switch_core_media_set_r_sdp_codec_string+0x52c>
    34b0:	e28d0c07 	add	r0, sp, #1792	; 0x700
    34b4:	e3a01032 	mov	r1, #50	; 0x32
    34b8:	ebfffffe 	bl	0 <switch_loadable_module_get_codecs>
    34bc:	e2703001 	rsbs	r3, r0, #1
    34c0:	e1a07000 	mov	r7, r0
    34c4:	33a03000 	movcc	r3, #0
    34c8:	eafffe25 	b	2d64 <switch_core_media_set_r_sdp_codec_string+0x1c4>
    34cc:	e1a00005 	mov	r0, r5
    34d0:	e3a01000 	mov	r1, #0
    34d4:	e3a0200a 	mov	r2, #10
    34d8:	ebfffffe 	bl	0 <strtol>
    34dc:	e3500000 	cmp	r0, #0
    34e0:	0afffe02 	beq	2cf0 <switch_core_media_set_r_sdp_codec_string+0x150>
    34e4:	e3a0c001 	mov	ip, #1
    34e8:	e58dc030 	str	ip, [sp, #48]	; 0x30
    34ec:	eafffe01 	b	2cf8 <switch_core_media_set_r_sdp_codec_string+0x158>
    34f0:	e59f10dc 	ldr	r1, [pc, #220]	; 35d4 <switch_core_media_set_r_sdp_codec_string+0xa34>
    34f4:	e59d0024 	ldr	r0, [sp, #36]	; 0x24
    34f8:	e08f1001 	add	r1, pc, r1
    34fc:	e28d2039 	add	r2, sp, #57	; 0x39
    3500:	e3a03001 	mov	r3, #1
    3504:	ebfffffe 	bl	0 <switch_channel_set_variable_var_check>
    3508:	eafffef2 	b	30d8 <switch_core_media_set_r_sdp_codec_string+0x538>
    350c:	ebfffffe 	bl	0 <strlen>
    3510:	e28d2038 	add	r2, sp, #56	; 0x38
    3514:	e59bc00c 	ldr	ip, [fp, #12]
    3518:	e5953008 	ldr	r3, [r5, #8]
    351c:	e58dc000 	str	ip, [sp]
    3520:	e1a01000 	mov	r1, r0
    3524:	e2611b01 	rsb	r1, r1, #1024	; 0x400
    3528:	e0820000 	add	r0, r2, r0
    352c:	e59d2034 	ldr	r2, [sp, #52]	; 0x34
    3530:	ebfffffe 	bl	0 <switch_snprintf>
    3534:	eafffed8 	b	309c <switch_core_media_set_r_sdp_codec_string+0x4fc>
    3538:	e1a01000 	mov	r1, r0
    353c:	e3a0200a 	mov	r2, #10
    3540:	e594000c 	ldr	r0, [r4, #12]
    3544:	ebfffffe 	bl	0 <strtol>
    3548:	e58d0028 	str	r0, [sp, #40]	; 0x28
    354c:	eafffe1d 	b	2dc8 <switch_core_media_set_r_sdp_codec_string+0x228>
    3550:	e59f3080 	ldr	r3, [pc, #128]	; 35d8 <switch_core_media_set_r_sdp_codec_string+0xa38>
    3554:	e59f0080 	ldr	r0, [pc, #128]	; 35dc <switch_core_media_set_r_sdp_codec_string+0xa3c>
    3558:	e59f1080 	ldr	r1, [pc, #128]	; 35e0 <switch_core_media_set_r_sdp_codec_string+0xa40>
    355c:	e08f3003 	add	r3, pc, r3
    3560:	e08f0000 	add	r0, pc, r0
    3564:	e08f1001 	add	r1, pc, r1
    3568:	e59f2074 	ldr	r2, [pc, #116]	; 35e4 <switch_core_media_set_r_sdp_codec_string+0xa44>
    356c:	e2833e27 	add	r3, r3, #624	; 0x270
    3570:	ebfffffe 	bl	0 <__assert_fail>
    3574:	000056cc 	.word	0x000056cc
    3578:	0000094c 	.word	0x0000094c
    357c:	00000934 	.word	0x00000934
    3580:	00000920 	.word	0x00000920
    3584:	0000090c 	.word	0x0000090c
    3588:	000008f8 	.word	0x000008f8
    358c:	000008e4 	.word	0x000008e4
    3590:	000008d0 	.word	0x000008d0
    3594:	000008bc 	.word	0x000008bc
    3598:	00000804 	.word	0x00000804
    359c:	000007a0 	.word	0x000007a0
    35a0:	00000698 	.word	0x00000698
    35a4:	00005cf8 	.word	0x00005cf8
    35a8:	00000694 	.word	0x00000694
    35ac:	00000510 	.word	0x00000510
    35b0:	00000448 	.word	0x00000448
    35b4:	00000170 	.word	0x00000170
    35b8:	0000016c 	.word	0x0000016c
    35bc:	00000174 	.word	0x00000174
    35c0:	0000205d 	.word	0x0000205d
    35c4:	00000138 	.word	0x00000138
    35c8:	00000134 	.word	0x00000134
    35cc:	0000013c 	.word	0x0000013c
    35d0:	000020a0 	.word	0x000020a0
    35d4:	000000d4 	.word	0x000000d4
    35d8:	00000074 	.word	0x00000074
    35dc:	00000074 	.word	0x00000074
    35e0:	00000074 	.word	0x00000074
    35e4:	00002006 	.word	0x00002006

000035e8 <switch_core_media_get_codec_string>:
    35e8:	e92d4038 	push	{r3, r4, r5, lr}
    35ec:	e2504000 	subs	r4, r0, #0
    35f0:	0a00002c 	beq	36a8 <switch_core_media_get_codec_string+0xc0>
    35f4:	e59f30d0 	ldr	r3, [pc, #208]	; 36cc <switch_core_media_get_codec_string+0xe4>
    35f8:	e7945003 	ldr	r5, [r4, r3]
    35fc:	e3550000 	cmp	r5, #0
    3600:	0a00000c 	beq	3638 <switch_core_media_get_codec_string+0x50>
    3604:	e59f10c4 	ldr	r1, [pc, #196]	; 36d0 <switch_core_media_get_codec_string+0xe8>
    3608:	e5940018 	ldr	r0, [r4, #24]
    360c:	e08f1001 	add	r1, pc, r1
    3610:	e3a02001 	mov	r2, #1
    3614:	e3e03000 	mvn	r3, #0
    3618:	ebfffffe 	bl	0 <switch_channel_get_variable_dup>
    361c:	e3500000 	cmp	r0, #0
    3620:	0a00000b 	beq	3654 <switch_core_media_get_codec_string+0x6c>
    3624:	e3a03000 	mov	r3, #0
    3628:	e5d02000 	ldrb	r2, [r0]
    362c:	e3520000 	cmp	r2, #0
    3630:	01a00003 	moveq	r0, r3
    3634:	e8bd8038 	pop	{r3, r4, r5, pc}
    3638:	e59f3094 	ldr	r3, [pc, #148]	; 36d4 <switch_core_media_get_codec_string+0xec>
    363c:	e08f3003 	add	r3, pc, r3
    3640:	e1a00003 	mov	r0, r3
    3644:	e5d02000 	ldrb	r2, [r0]
    3648:	e3520000 	cmp	r2, #0
    364c:	01a00003 	moveq	r0, r3
    3650:	e8bd8038 	pop	{r3, r4, r5, pc}
    3654:	e59f107c 	ldr	r1, [pc, #124]	; 36d8 <switch_core_media_get_codec_string+0xf0>
    3658:	e5940018 	ldr	r0, [r4, #24]
    365c:	e08f1001 	add	r1, pc, r1
    3660:	e3a02001 	mov	r2, #1
    3664:	e3e03000 	mvn	r3, #0
    3668:	ebfffffe 	bl	0 <switch_channel_get_variable_dup>
    366c:	e3500000 	cmp	r0, #0
    3670:	1affffeb 	bne	3624 <switch_core_media_get_codec_string+0x3c>
    3674:	e5940018 	ldr	r0, [r4, #24]
    3678:	ebfffffe 	bl	0 <switch_channel_direction>
    367c:	e59f3058 	ldr	r3, [pc, #88]	; 36dc <switch_core_media_get_codec_string+0xf4>
    3680:	e7953003 	ldr	r3, [r5, r3]
    3684:	e3500001 	cmp	r0, #1
    3688:	0593001c 	ldreq	r0, [r3, #28]
    368c:	15930018 	ldrne	r0, [r3, #24]
    3690:	05933018 	ldreq	r3, [r3, #24]
    3694:	1593301c 	ldrne	r3, [r3, #28]
    3698:	e3500000 	cmp	r0, #0
    369c:	1affffe1 	bne	3628 <switch_core_media_get_codec_string+0x40>
    36a0:	e1a00003 	mov	r0, r3
    36a4:	e8bd8038 	pop	{r3, r4, r5, pc}
    36a8:	e59f3030 	ldr	r3, [pc, #48]	; 36e0 <switch_core_media_get_codec_string+0xf8>
    36ac:	e59f0030 	ldr	r0, [pc, #48]	; 36e4 <switch_core_media_get_codec_string+0xfc>
    36b0:	e59f1030 	ldr	r1, [pc, #48]	; 36e8 <switch_core_media_get_codec_string+0x100>
    36b4:	e08f3003 	add	r3, pc, r3
    36b8:	e08f0000 	add	r0, pc, r0
    36bc:	e08f1001 	add	r1, pc, r1
    36c0:	e59f2024 	ldr	r2, [pc, #36]	; 36ec <switch_core_media_get_codec_string+0x104>
    36c4:	e2833fb2 	add	r3, r3, #712	; 0x2c8
    36c8:	ebfffffe 	bl	0 <__assert_fail>
    36cc:	000056cc 	.word	0x000056cc
    36d0:	000000bc 	.word	0x000000bc
    36d4:	00000090 	.word	0x00000090
    36d8:	00000074 	.word	0x00000074
    36dc:	00005cf8 	.word	0x00005cf8
    36e0:	00000024 	.word	0x00000024
    36e4:	00000024 	.word	0x00000024
    36e8:	00000024 	.word	0x00000024
    36ec:	000002ad 	.word	0x000002ad

000036f0 <switch_core_session_clear_crypto>:
    36f0:	e92d4070 	push	{r4, r5, r6, lr}
    36f4:	e1a05000 	mov	r5, r0
    36f8:	e59f60ac 	ldr	r6, [pc, #172]	; 37ac <switch_core_session_clear_crypto+0xbc>
    36fc:	e24dd030 	sub	sp, sp, #48	; 0x30
    3700:	e08f6006 	add	r6, pc, r6
    3704:	e28d4004 	add	r4, sp, #4
    3708:	e8b6000f 	ldm	r6!, {r0, r1, r2, r3}
    370c:	e8a4000f 	stmia	r4!, {r0, r1, r2, r3}
    3710:	e8b6000f 	ldm	r6!, {r0, r1, r2, r3}
    3714:	e59dc004 	ldr	ip, [sp, #4]
    3718:	e8a4000f 	stmia	r4!, {r0, r1, r2, r3}
    371c:	e35c0000 	cmp	ip, #0
    3720:	e8960007 	ldm	r6, {r0, r1, r2}
    3724:	e8840007 	stm	r4, {r0, r1, r2}
    3728:	0a000008 	beq	3750 <switch_core_session_clear_crypto+0x60>
    372c:	e28d4004 	add	r4, sp, #4
    3730:	e1a0100c 	mov	r1, ip
    3734:	e5950018 	ldr	r0, [r5, #24]
    3738:	e3a02000 	mov	r2, #0
    373c:	e3a03001 	mov	r3, #1
    3740:	ebfffffe 	bl	0 <switch_channel_set_variable_var_check>
    3744:	e5b4c004 	ldr	ip, [r4, #4]!
    3748:	e35c0000 	cmp	ip, #0
    374c:	1afffff7 	bne	3730 <switch_core_session_clear_crypto+0x40>
    3750:	e59f3058 	ldr	r3, [pc, #88]	; 37b0 <switch_core_session_clear_crypto+0xc0>
    3754:	e7956003 	ldr	r6, [r5, r3]
    3758:	e3560000 	cmp	r6, #0
    375c:	0a000010 	beq	37a4 <switch_core_session_clear_crypto+0xb4>
    3760:	e3a04000 	mov	r4, #0
    3764:	e0845184 	add	r5, r4, r4, lsl #3
    3768:	e3a01000 	mov	r1, #0
    376c:	e1a05205 	lsl	r5, r5, #4
    3770:	e2850050 	add	r0, r5, #80	; 0x50
    3774:	e3a02090 	mov	r2, #144	; 0x90
    3778:	e0860000 	add	r0, r6, r0
    377c:	e2855db3 	add	r5, r5, #11456	; 0x2cc0
    3780:	ebfffffe 	bl	0 <memset>
    3784:	e2850028 	add	r0, r5, #40	; 0x28
    3788:	e0860000 	add	r0, r6, r0
    378c:	e3a01000 	mov	r1, #0
    3790:	e3a02090 	mov	r2, #144	; 0x90
    3794:	e2844001 	add	r4, r4, #1
    3798:	ebfffffe 	bl	0 <memset>
    379c:	e3540009 	cmp	r4, #9
    37a0:	1affffef 	bne	3764 <switch_core_session_clear_crypto+0x74>
    37a4:	e28dd030 	add	sp, sp, #48	; 0x30
    37a8:	e8bd8070 	pop	{r4, r5, r6, pc}
    37ac:	000000a4 	.word	0x000000a4
    37b0:	000056cc 	.word	0x000056cc

000037b4 <switch_core_session_local_crypto_key>:
    37b4:	e59f302c 	ldr	r3, [pc, #44]	; 37e8 <switch_core_session_local_crypto_key+0x34>
    37b8:	e7900003 	ldr	r0, [r0, r3]
    37bc:	e3500000 	cmp	r0, #0
    37c0:	012fff1e 	bxeq	lr
    37c4:	e59f3020 	ldr	r3, [pc, #32]	; 37ec <switch_core_session_local_crypto_key+0x38>
    37c8:	e0010193 	mul	r1, r3, r1
    37cc:	e0803001 	add	r3, r0, r1
    37d0:	e59335f0 	ldr	r3, [r3, #1520]	; 0x5f0
    37d4:	e0833183 	add	r3, r3, r3, lsl #3
    37d8:	e0811203 	add	r1, r1, r3, lsl #4
    37dc:	e0800001 	add	r0, r0, r1
    37e0:	e59000d8 	ldr	r0, [r0, #216]	; 0xd8
    37e4:	e12fff1e 	bx	lr
    37e8:	000056cc 	.word	0x000056cc
    37ec:	00002c98 	.word	0x00002c98

000037f0 <switch_core_media_parse_rtp_bugs>:
    37f0:	e92d4038 	push	{r3, r4, r5, lr}
    37f4:	e1a04000 	mov	r4, r0
    37f8:	e59f0318 	ldr	r0, [pc, #792]	; 3b18 <switch_core_media_parse_rtp_bugs+0x328>
    37fc:	e1a05001 	mov	r5, r1
    3800:	e08f0000 	add	r0, pc, r0
    3804:	ebfffffe 	bl	0 <switch_stristr>
    3808:	e1a01005 	mov	r1, r5
    380c:	e3500000 	cmp	r0, #0
    3810:	e59f0304 	ldr	r0, [pc, #772]	; 3b1c <switch_core_media_parse_rtp_bugs+0x32c>
    3814:	13a03000 	movne	r3, #0
    3818:	15843000 	strne	r3, [r4]
    381c:	e08f0000 	add	r0, pc, r0
    3820:	ebfffffe 	bl	0 <switch_stristr>
    3824:	e1a01005 	mov	r1, r5
    3828:	e3500000 	cmp	r0, #0
    382c:	e59f02ec 	ldr	r0, [pc, #748]	; 3b20 <switch_core_media_parse_rtp_bugs+0x330>
    3830:	15943000 	ldrne	r3, [r4]
    3834:	e08f0000 	add	r0, pc, r0
    3838:	13833001 	orrne	r3, r3, #1
    383c:	15843000 	strne	r3, [r4]
    3840:	ebfffffe 	bl	0 <switch_stristr>
    3844:	e1a01005 	mov	r1, r5
    3848:	e3500000 	cmp	r0, #0
    384c:	e59f02d0 	ldr	r0, [pc, #720]	; 3b24 <switch_core_media_parse_rtp_bugs+0x334>
    3850:	15943000 	ldrne	r3, [r4]
    3854:	e08f0000 	add	r0, pc, r0
    3858:	13c33001 	bicne	r3, r3, #1
    385c:	15843000 	strne	r3, [r4]
    3860:	ebfffffe 	bl	0 <switch_stristr>
    3864:	e1a01005 	mov	r1, r5
    3868:	e3500000 	cmp	r0, #0
    386c:	e59f02b4 	ldr	r0, [pc, #692]	; 3b28 <switch_core_media_parse_rtp_bugs+0x338>
    3870:	15943000 	ldrne	r3, [r4]
    3874:	e08f0000 	add	r0, pc, r0
    3878:	13833002 	orrne	r3, r3, #2
    387c:	15843000 	strne	r3, [r4]
    3880:	ebfffffe 	bl	0 <switch_stristr>
    3884:	e1a01005 	mov	r1, r5
    3888:	e3500000 	cmp	r0, #0
    388c:	e59f0298 	ldr	r0, [pc, #664]	; 3b2c <switch_core_media_parse_rtp_bugs+0x33c>
    3890:	15943000 	ldrne	r3, [r4]
    3894:	e08f0000 	add	r0, pc, r0
    3898:	13c33002 	bicne	r3, r3, #2
    389c:	15843000 	strne	r3, [r4]
    38a0:	ebfffffe 	bl	0 <switch_stristr>
    38a4:	e1a01005 	mov	r1, r5
    38a8:	e3500000 	cmp	r0, #0
    38ac:	e59f027c 	ldr	r0, [pc, #636]	; 3b30 <switch_core_media_parse_rtp_bugs+0x340>
    38b0:	15943000 	ldrne	r3, [r4]
    38b4:	e08f0000 	add	r0, pc, r0
    38b8:	13833004 	orrne	r3, r3, #4
    38bc:	15843000 	strne	r3, [r4]
    38c0:	ebfffffe 	bl	0 <switch_stristr>
    38c4:	e1a01005 	mov	r1, r5
    38c8:	e3500000 	cmp	r0, #0
    38cc:	e59f0260 	ldr	r0, [pc, #608]	; 3b34 <switch_core_media_parse_rtp_bugs+0x344>
    38d0:	15943000 	ldrne	r3, [r4]
    38d4:	e08f0000 	add	r0, pc, r0
    38d8:	13c33004 	bicne	r3, r3, #4
    38dc:	15843000 	strne	r3, [r4]
    38e0:	ebfffffe 	bl	0 <switch_stristr>
    38e4:	e1a01005 	mov	r1, r5
    38e8:	e3500000 	cmp	r0, #0
    38ec:	e59f0244 	ldr	r0, [pc, #580]	; 3b38 <switch_core_media_parse_rtp_bugs+0x348>
    38f0:	15943000 	ldrne	r3, [r4]
    38f4:	e08f0000 	add	r0, pc, r0
    38f8:	13833008 	orrne	r3, r3, #8
    38fc:	15843000 	strne	r3, [r4]
    3900:	ebfffffe 	bl	0 <switch_stristr>
    3904:	e1a01005 	mov	r1, r5
    3908:	e3500000 	cmp	r0, #0
    390c:	e59f0228 	ldr	r0, [pc, #552]	; 3b3c <switch_core_media_parse_rtp_bugs+0x34c>
    3910:	15943000 	ldrne	r3, [r4]
    3914:	e08f0000 	add	r0, pc, r0
    3918:	13c33008 	bicne	r3, r3, #8
    391c:	15843000 	strne	r3, [r4]
    3920:	ebfffffe 	bl	0 <switch_stristr>
    3924:	e1a01005 	mov	r1, r5
    3928:	e3500000 	cmp	r0, #0
    392c:	e59f020c 	ldr	r0, [pc, #524]	; 3b40 <switch_core_media_parse_rtp_bugs+0x350>
    3930:	15943000 	ldrne	r3, [r4]
    3934:	e08f0000 	add	r0, pc, r0
    3938:	13833010 	orrne	r3, r3, #16
    393c:	15843000 	strne	r3, [r4]
    3940:	ebfffffe 	bl	0 <switch_stristr>
    3944:	e1a01005 	mov	r1, r5
    3948:	e3500000 	cmp	r0, #0
    394c:	e59f01f0 	ldr	r0, [pc, #496]	; 3b44 <switch_core_media_parse_rtp_bugs+0x354>
    3950:	15943000 	ldrne	r3, [r4]
    3954:	e08f0000 	add	r0, pc, r0
    3958:	13c33010 	bicne	r3, r3, #16
    395c:	15843000 	strne	r3, [r4]
    3960:	ebfffffe 	bl	0 <switch_stristr>
    3964:	e1a01005 	mov	r1, r5
    3968:	e3500000 	cmp	r0, #0
    396c:	e59f01d4 	ldr	r0, [pc, #468]	; 3b48 <switch_core_media_parse_rtp_bugs+0x358>
    3970:	15943000 	ldrne	r3, [r4]
    3974:	e08f0000 	add	r0, pc, r0
    3978:	13833020 	orrne	r3, r3, #32
    397c:	15843000 	strne	r3, [r4]
    3980:	ebfffffe 	bl	0 <switch_stristr>
    3984:	e1a01005 	mov	r1, r5
    3988:	e3500000 	cmp	r0, #0
    398c:	e59f01b8 	ldr	r0, [pc, #440]	; 3b4c <switch_core_media_parse_rtp_bugs+0x35c>
    3990:	15943000 	ldrne	r3, [r4]
    3994:	e08f0000 	add	r0, pc, r0
    3998:	13c33020 	bicne	r3, r3, #32
    399c:	15843000 	strne	r3, [r4]
    39a0:	ebfffffe 	bl	0 <switch_stristr>
    39a4:	e1a01005 	mov	r1, r5
    39a8:	e3500000 	cmp	r0, #0
    39ac:	e59f019c 	ldr	r0, [pc, #412]	; 3b50 <switch_core_media_parse_rtp_bugs+0x360>
    39b0:	15943000 	ldrne	r3, [r4]
    39b4:	e08f0000 	add	r0, pc, r0
    39b8:	13833040 	orrne	r3, r3, #64	; 0x40
    39bc:	15843000 	strne	r3, [r4]
    39c0:	ebfffffe 	bl	0 <switch_stristr>
    39c4:	e1a01005 	mov	r1, r5
    39c8:	e3500000 	cmp	r0, #0
    39cc:	e59f0180 	ldr	r0, [pc, #384]	; 3b54 <switch_core_media_parse_rtp_bugs+0x364>
    39d0:	15943000 	ldrne	r3, [r4]
    39d4:	e08f0000 	add	r0, pc, r0
    39d8:	13c33040 	bicne	r3, r3, #64	; 0x40
    39dc:	15843000 	strne	r3, [r4]
    39e0:	ebfffffe 	bl	0 <switch_stristr>
    39e4:	e1a01005 	mov	r1, r5
    39e8:	e3500000 	cmp	r0, #0
    39ec:	e59f0164 	ldr	r0, [pc, #356]	; 3b58 <switch_core_media_parse_rtp_bugs+0x368>
    39f0:	15943000 	ldrne	r3, [r4]
    39f4:	e08f0000 	add	r0, pc, r0
    39f8:	13833080 	orrne	r3, r3, #128	; 0x80
    39fc:	15843000 	strne	r3, [r4]
    3a00:	ebfffffe 	bl	0 <switch_stristr>
    3a04:	e1a01005 	mov	r1, r5
    3a08:	e3500000 	cmp	r0, #0
    3a0c:	e59f0148 	ldr	r0, [pc, #328]	; 3b5c <switch_core_media_parse_rtp_bugs+0x36c>
    3a10:	15943000 	ldrne	r3, [r4]
    3a14:	e08f0000 	add	r0, pc, r0
    3a18:	13c33080 	bicne	r3, r3, #128	; 0x80
    3a1c:	15843000 	strne	r3, [r4]
    3a20:	ebfffffe 	bl	0 <switch_stristr>
    3a24:	e1a01005 	mov	r1, r5
    3a28:	e3500000 	cmp	r0, #0
    3a2c:	e59f012c 	ldr	r0, [pc, #300]	; 3b60 <switch_core_media_parse_rtp_bugs+0x370>
    3a30:	15943000 	ldrne	r3, [r4]
    3a34:	e08f0000 	add	r0, pc, r0
    3a38:	13833b02 	orrne	r3, r3, #2048	; 0x800
    3a3c:	15843000 	strne	r3, [r4]
    3a40:	ebfffffe 	bl	0 <switch_stristr>
    3a44:	e1a01005 	mov	r1, r5
    3a48:	e3500000 	cmp	r0, #0
    3a4c:	e59f0110 	ldr	r0, [pc, #272]	; 3b64 <switch_core_media_parse_rtp_bugs+0x374>
    3a50:	15943000 	ldrne	r3, [r4]
    3a54:	e08f0000 	add	r0, pc, r0
    3a58:	13c33b02 	bicne	r3, r3, #2048	; 0x800
    3a5c:	15843000 	strne	r3, [r4]
    3a60:	ebfffffe 	bl	0 <switch_stristr>
    3a64:	e1a01005 	mov	r1, r5
    3a68:	e3500000 	cmp	r0, #0
    3a6c:	e59f00f4 	ldr	r0, [pc, #244]	; 3b68 <switch_core_media_parse_rtp_bugs+0x378>
    3a70:	15943000 	ldrne	r3, [r4]
    3a74:	e08f0000 	add	r0, pc, r0
    3a78:	13833c01 	orrne	r3, r3, #256	; 0x100
    3a7c:	15843000 	strne	r3, [r4]
    3a80:	ebfffffe 	bl	0 <switch_stristr>
    3a84:	e1a01005 	mov	r1, r5
    3a88:	e3500000 	cmp	r0, #0
    3a8c:	e59f00d8 	ldr	r0, [pc, #216]	; 3b6c <switch_core_media_parse_rtp_bugs+0x37c>
    3a90:	15943000 	ldrne	r3, [r4]
    3a94:	e08f0000 	add	r0, pc, r0
    3a98:	13c33c01 	bicne	r3, r3, #256	; 0x100
    3a9c:	15843000 	strne	r3, [r4]
    3aa0:	ebfffffe 	bl	0 <switch_stristr>
    3aa4:	e1a01005 	mov	r1, r5
    3aa8:	e3500000 	cmp	r0, #0
    3aac:	e59f00bc 	ldr	r0, [pc, #188]	; 3b70 <switch_core_media_parse_rtp_bugs+0x380>
    3ab0:	15943000 	ldrne	r3, [r4]
    3ab4:	e08f0000 	add	r0, pc, r0
    3ab8:	13833c02 	orrne	r3, r3, #512	; 0x200
    3abc:	15843000 	strne	r3, [r4]
    3ac0:	ebfffffe 	bl	0 <switch_stristr>
    3ac4:	e1a01005 	mov	r1, r5
    3ac8:	e3500000 	cmp	r0, #0
    3acc:	e59f00a0 	ldr	r0, [pc, #160]	; 3b74 <switch_core_media_parse_rtp_bugs+0x384>
    3ad0:	15943000 	ldrne	r3, [r4]
    3ad4:	e08f0000 	add	r0, pc, r0
    3ad8:	13c33c02 	bicne	r3, r3, #512	; 0x200
    3adc:	15843000 	strne	r3, [r4]
    3ae0:	ebfffffe 	bl	0 <switch_stristr>
    3ae4:	e1a01005 	mov	r1, r5
    3ae8:	e3500000 	cmp	r0, #0
    3aec:	e59f0084 	ldr	r0, [pc, #132]	; 3b78 <switch_core_media_parse_rtp_bugs+0x388>
    3af0:	15943000 	ldrne	r3, [r4]
    3af4:	e08f0000 	add	r0, pc, r0
    3af8:	13833b01 	orrne	r3, r3, #1024	; 0x400
    3afc:	15843000 	strne	r3, [r4]
    3b00:	ebfffffe 	bl	0 <switch_stristr>
    3b04:	e3500000 	cmp	r0, #0
    3b08:	15943000 	ldrne	r3, [r4]
    3b0c:	13c33b01 	bicne	r3, r3, #1024	; 0x400
    3b10:	15843000 	strne	r3, [r4]
    3b14:	e8bd8038 	pop	{r3, r4, r5, pc}
    3b18:	00000310 	.word	0x00000310
    3b1c:	000002f8 	.word	0x000002f8
    3b20:	000002e4 	.word	0x000002e4
    3b24:	000002c8 	.word	0x000002c8
    3b28:	000002ac 	.word	0x000002ac
    3b2c:	00000290 	.word	0x00000290
    3b30:	00000274 	.word	0x00000274
    3b34:	00000258 	.word	0x00000258
    3b38:	0000023c 	.word	0x0000023c
    3b3c:	00000220 	.word	0x00000220
    3b40:	00000204 	.word	0x00000204
    3b44:	000001e8 	.word	0x000001e8
    3b48:	000001cc 	.word	0x000001cc
    3b4c:	000001b0 	.word	0x000001b0
    3b50:	00000194 	.word	0x00000194
    3b54:	00000178 	.word	0x00000178
    3b58:	0000015c 	.word	0x0000015c
    3b5c:	00000140 	.word	0x00000140
    3b60:	00000124 	.word	0x00000124
    3b64:	00000108 	.word	0x00000108
    3b68:	000000ec 	.word	0x000000ec
    3b6c:	000000d0 	.word	0x000000d0
    3b70:	000000b4 	.word	0x000000b4
    3b74:	00000098 	.word	0x00000098
    3b78:	0000007c 	.word	0x0000007c

00003b7c <switch_core_media_add_crypto>:
    3b7c:	e92d45f0 	push	{r4, r5, r6, r7, r8, sl, lr}
    3b80:	e1a06000 	mov	r6, r0
    3b84:	e24dd054 	sub	sp, sp, #84	; 0x54
    3b88:	e1a00001 	mov	r0, r1
    3b8c:	e3a01020 	mov	r1, #32
    3b90:	e1a05002 	mov	r5, r2
    3b94:	ebfffffe 	bl	0 <strchr>
    3b98:	e3500000 	cmp	r0, #0
    3b9c:	0a000002 	beq	3bac <switch_core_media_add_crypto+0x30>
    3ba0:	e5d03000 	ldrb	r3, [r0]
    3ba4:	e3530000 	cmp	r3, #0
    3ba8:	1a000011 	bne	3bf4 <switch_core_media_add_crypto+0x78>
    3bac:	e3a0c000 	mov	ip, #0
    3bb0:	e1a0000c 	mov	r0, ip
    3bb4:	e58dc000 	str	ip, [sp]
    3bb8:	e59f2190 	ldr	r2, [pc, #400]	; 3d50 <switch_core_media_add_crypto+0x1d4>
    3bbc:	e3a0c003 	mov	ip, #3
    3bc0:	e58dc004 	str	ip, [sp, #4]
    3bc4:	e59f1188 	ldr	r1, [pc, #392]	; 3d54 <switch_core_media_add_crypto+0x1d8>
    3bc8:	e59fc188 	ldr	ip, [pc, #392]	; 3d58 <switch_core_media_add_crypto+0x1dc>
    3bcc:	e08f2002 	add	r2, pc, r2
    3bd0:	e08fc00c 	add	ip, pc, ip
    3bd4:	e08f1001 	add	r1, pc, r1
    3bd8:	e2822fbb 	add	r2, r2, #748	; 0x2ec
    3bdc:	e3a03e3d 	mov	r3, #976	; 0x3d0
    3be0:	e58dc008 	str	ip, [sp, #8]
    3be4:	ebfffffe 	bl	0 <switch_log_printf>
    3be8:	e3a00001 	mov	r0, #1
    3bec:	e28dd054 	add	sp, sp, #84	; 0x54
    3bf0:	e8bd85f0 	pop	{r4, r5, r6, r7, r8, sl, pc}
    3bf4:	e5d03001 	ldrb	r3, [r0, #1]
    3bf8:	e3530000 	cmp	r3, #0
    3bfc:	0affffea 	beq	3bac <switch_core_media_add_crypto+0x30>
    3c00:	e2804001 	add	r4, r0, #1
    3c04:	e1a00004 	mov	r0, r4
    3c08:	ebfffffe 	bl	2228 <switch_core_media_crypto_str2type>
    3c0c:	e3500009 	cmp	r0, #9
    3c10:	e1a08000 	mov	r8, r0
    3c14:	0a000023 	beq	3ca8 <switch_core_media_add_crypto+0x12c>
    3c18:	e1a00004 	mov	r0, r4
    3c1c:	e3a01020 	mov	r1, #32
    3c20:	ebfffffe 	bl	0 <strchr>
    3c24:	e2507000 	subs	r7, r0, #0
    3c28:	0affffdf 	beq	3bac <switch_core_media_add_crypto+0x30>
    3c2c:	e5d73000 	ldrb	r3, [r7]
    3c30:	e3530000 	cmp	r3, #0
    3c34:	0affffdc 	beq	3bac <switch_core_media_add_crypto+0x30>
    3c38:	e5d73001 	ldrb	r3, [r7, #1]
    3c3c:	e3530000 	cmp	r3, #0
    3c40:	0affffd9 	beq	3bac <switch_core_media_add_crypto+0x30>
    3c44:	e59f1110 	ldr	r1, [pc, #272]	; 3d5c <switch_core_media_add_crypto+0x1e0>
    3c48:	e2874001 	add	r4, r7, #1
    3c4c:	e1a00004 	mov	r0, r4
    3c50:	e08f1001 	add	r1, pc, r1
    3c54:	e3a02007 	mov	r2, #7
    3c58:	ebfffffe 	bl	0 <strncasecmp>
    3c5c:	e250a000 	subs	sl, r0, #0
    3c60:	0a000021 	beq	3cec <switch_core_media_add_crypto+0x170>
    3c64:	e3a0c000 	mov	ip, #0
    3c68:	e1a0000c 	mov	r0, ip
    3c6c:	e58dc000 	str	ip, [sp]
    3c70:	e59f20e8 	ldr	r2, [pc, #232]	; 3d60 <switch_core_media_add_crypto+0x1e4>
    3c74:	e3a0c003 	mov	ip, #3
    3c78:	e58dc004 	str	ip, [sp, #4]
    3c7c:	e59f10e0 	ldr	r1, [pc, #224]	; 3d64 <switch_core_media_add_crypto+0x1e8>
    3c80:	e59fc0e0 	ldr	ip, [pc, #224]	; 3d68 <switch_core_media_add_crypto+0x1ec>
    3c84:	e08f2002 	add	r2, pc, r2
    3c88:	e08fc00c 	add	ip, pc, ip
    3c8c:	e08f1001 	add	r1, pc, r1
    3c90:	e2822fbb 	add	r2, r2, #748	; 0x2ec
    3c94:	e59f30d0 	ldr	r3, [pc, #208]	; 3d6c <switch_core_media_add_crypto+0x1f0>
    3c98:	e58dc008 	str	ip, [sp, #8]
    3c9c:	e58d400c 	str	r4, [sp, #12]
    3ca0:	ebfffffe 	bl	0 <switch_log_printf>
    3ca4:	eaffffc0 	b	3bac <switch_core_media_add_crypto+0x30>
    3ca8:	e3a0c000 	mov	ip, #0
    3cac:	e1a0000c 	mov	r0, ip
    3cb0:	e58dc000 	str	ip, [sp]
    3cb4:	e59f20b4 	ldr	r2, [pc, #180]	; 3d70 <switch_core_media_add_crypto+0x1f4>
    3cb8:	e3a0c003 	mov	ip, #3
    3cbc:	e58dc004 	str	ip, [sp, #4]
    3cc0:	e59f10ac 	ldr	r1, [pc, #172]	; 3d74 <switch_core_media_add_crypto+0x1f8>
    3cc4:	e59fc0ac 	ldr	ip, [pc, #172]	; 3d78 <switch_core_media_add_crypto+0x1fc>
    3cc8:	e08f2002 	add	r2, pc, r2
    3ccc:	e08fc00c 	add	ip, pc, ip
    3cd0:	e08f1001 	add	r1, pc, r1
    3cd4:	e2822fbb 	add	r2, r2, #748	; 0x2ec
    3cd8:	e59f309c 	ldr	r3, [pc, #156]	; 3d7c <switch_core_media_add_crypto+0x200>
    3cdc:	e58dc008 	str	ip, [sp, #8]
    3ce0:	e58d400c 	str	r4, [sp, #12]
    3ce4:	ebfffffe 	bl	0 <switch_log_printf>
    3ce8:	eaffffaf 	b	3bac <switch_core_media_add_crypto+0x30>
    3cec:	e2870008 	add	r0, r7, #8
    3cf0:	e28d1010 	add	r1, sp, #16
    3cf4:	e3a02040 	mov	r2, #64	; 0x40
    3cf8:	ebfffffe 	bl	0 <switch_b64_decode>
    3cfc:	e3550000 	cmp	r5, #0
    3d00:	e0888088 	add	r8, r8, r8, lsl #1
    3d04:	1a000008 	bne	3d2c <switch_core_media_add_crypto+0x1b0>
    3d08:	e59f3070 	ldr	r3, [pc, #112]	; 3d80 <switch_core_media_add_crypto+0x204>
    3d0c:	e2860004 	add	r0, r6, #4
    3d10:	e08f3003 	add	r3, pc, r3
    3d14:	e0833108 	add	r3, r3, r8, lsl #2
    3d18:	e28d1010 	add	r1, sp, #16
    3d1c:	e5932008 	ldr	r2, [r3, #8]
    3d20:	ebfffffe 	bl	0 <memcpy>
    3d24:	e1a00005 	mov	r0, r5
    3d28:	eaffffaf 	b	3bec <switch_core_media_add_crypto+0x70>
    3d2c:	e59f3050 	ldr	r3, [pc, #80]	; 3d84 <switch_core_media_add_crypto+0x208>
    3d30:	e2860044 	add	r0, r6, #68	; 0x44
    3d34:	e08f3003 	add	r3, pc, r3
    3d38:	e0833108 	add	r3, r3, r8, lsl #2
    3d3c:	e28d1010 	add	r1, sp, #16
    3d40:	e5932008 	ldr	r2, [r3, #8]
    3d44:	ebfffffe 	bl	0 <memcpy>
    3d48:	e1a0000a 	mov	r0, sl
    3d4c:	eaffffa6 	b	3bec <switch_core_media_add_crypto+0x70>
    3d50:	0000017c 	.word	0x0000017c
    3d54:	00000178 	.word	0x00000178
    3d58:	00000180 	.word	0x00000180
    3d5c:	00000104 	.word	0x00000104
    3d60:	000000d4 	.word	0x000000d4
    3d64:	000000d0 	.word	0x000000d0
    3d68:	000000d8 	.word	0x000000d8
    3d6c:	000003bd 	.word	0x000003bd
    3d70:	000000a0 	.word	0x000000a0
    3d74:	0000009c 	.word	0x0000009c
    3d78:	000000a4 	.word	0x000000a4
    3d7c:	000003b5 	.word	0x000003b5
    3d80:	00000068 	.word	0x00000068
    3d84:	00000048 	.word	0x00000048

00003d88 <switch_core_session_apply_crypto>:
    3d88:	e92d41f0 	push	{r4, r5, r6, r7, r8, lr}
    3d8c:	e2515000 	subs	r5, r1, #0
    3d90:	e59f6150 	ldr	r6, [pc, #336]	; 3ee8 <switch_core_session_apply_crypto+0x160>
    3d94:	e24dd008 	sub	sp, sp, #8
    3d98:	e08f6006 	add	r6, pc, r6
    3d9c:	e1a04000 	mov	r4, r0
    3da0:	159f6144 	ldrne	r6, [pc, #324]	; 3eec <switch_core_session_apply_crypto+0x164>
    3da4:	108f6006 	addne	r6, pc, r6
    3da8:	e59f3140 	ldr	r3, [pc, #320]	; 3ef0 <switch_core_session_apply_crypto+0x168>
    3dac:	e7947003 	ldr	r7, [r4, r3]
    3db0:	e3570000 	cmp	r7, #0
    3db4:	0a000012 	beq	3e04 <switch_core_session_apply_crypto+0x7c>
    3db8:	e5940018 	ldr	r0, [r4, #24]
    3dbc:	e3a01054 	mov	r1, #84	; 0x54
    3dc0:	ebfffffe 	bl	0 <switch_channel_test_flag>
    3dc4:	e2508000 	subs	r8, r0, #0
    3dc8:	1a00000d 	bne	3e04 <switch_core_session_apply_crypto+0x7c>
    3dcc:	e59f3120 	ldr	r3, [pc, #288]	; 3ef4 <switch_core_session_apply_crypto+0x16c>
    3dd0:	e0257593 	mla	r5, r3, r5, r7
    3dd4:	e2855050 	add	r5, r5, #80	; 0x50
    3dd8:	e59535a0 	ldr	r3, [r5, #1440]	; 0x5a0
    3ddc:	e0833183 	add	r3, r3, r3, lsl #3
    3de0:	e0853203 	add	r3, r5, r3, lsl #4
    3de4:	e593308c 	ldr	r3, [r3, #140]	; 0x8c
    3de8:	e3530000 	cmp	r3, #0
    3dec:	0a000004 	beq	3e04 <switch_core_session_apply_crypto+0x7c>
    3df0:	e5940018 	ldr	r0, [r4, #24]
    3df4:	e3a0105c 	mov	r1, #92	; 0x5c
    3df8:	ebfffffe 	bl	0 <switch_channel_test_flag>
    3dfc:	e3500000 	cmp	r0, #0
    3e00:	1a000001 	bne	3e0c <switch_core_session_apply_crypto+0x84>
    3e04:	e28dd008 	add	sp, sp, #8
    3e08:	e8bd81f0 	pop	{r4, r5, r6, r7, r8, pc}
    3e0c:	e59505a0 	ldr	r0, [r5, #1440]	; 0x5a0
    3e10:	e3a02001 	mov	r2, #1
    3e14:	e59f70dc 	ldr	r7, [pc, #220]	; 3ef8 <switch_core_session_apply_crypto+0x170>
    3e18:	e0800180 	add	r0, r0, r0, lsl #3
    3e1c:	e08f7007 	add	r7, pc, r7
    3e20:	e0850200 	add	r0, r5, r0, lsl #4
    3e24:	e590108c 	ldr	r1, [r0, #140]	; 0x8c
    3e28:	ebfffffe 	bl	3b7c <switch_core_media_add_crypto>
    3e2c:	e59535a0 	ldr	r3, [r5, #1440]	; 0x5a0
    3e30:	e59505a8 	ldr	r0, [r5, #1448]	; 0x5a8
    3e34:	e1a01008 	mov	r1, r8
    3e38:	e0833183 	add	r3, r3, r3, lsl #3
    3e3c:	e3a02001 	mov	r2, #1
    3e40:	e0853203 	add	r3, r5, r3, lsl #4
    3e44:	e283e004 	add	lr, r3, #4
    3e48:	e593c084 	ldr	ip, [r3, #132]	; 0x84
    3e4c:	e58de000 	str	lr, [sp]
    3e50:	e1a0300c 	mov	r3, ip
    3e54:	e08cc08c 	add	ip, ip, ip, lsl #1
    3e58:	e087c10c 	add	ip, r7, ip, lsl #2
    3e5c:	e59cc008 	ldr	ip, [ip, #8]
    3e60:	e58dc004 	str	ip, [sp, #4]
    3e64:	ebfffffe 	bl	0 <switch_rtp_add_crypto_key>
    3e68:	e595e5a0 	ldr	lr, [r5, #1440]	; 0x5a0
    3e6c:	e59505a8 	ldr	r0, [r5, #1448]	; 0x5a8
    3e70:	e3a01001 	mov	r1, #1
    3e74:	e08ee18e 	add	lr, lr, lr, lsl #3
    3e78:	e1a0e20e 	lsl	lr, lr, #4
    3e7c:	e085300e 	add	r3, r5, lr
    3e80:	e795200e 	ldr	r2, [r5, lr]
    3e84:	e5933084 	ldr	r3, [r3, #132]	; 0x84
    3e88:	e085e00e 	add	lr, r5, lr
    3e8c:	e28ee044 	add	lr, lr, #68	; 0x44
    3e90:	e083c083 	add	ip, r3, r3, lsl #1
    3e94:	e58de000 	str	lr, [sp]
    3e98:	e087c10c 	add	ip, r7, ip, lsl #2
    3e9c:	e59cc008 	ldr	ip, [ip, #8]
    3ea0:	e58dc004 	str	ip, [sp, #4]
    3ea4:	ebfffffe 	bl	0 <switch_rtp_add_crypto_key>
    3ea8:	e59f204c 	ldr	r2, [pc, #76]	; 3efc <switch_core_session_apply_crypto+0x174>
    3eac:	e1a01006 	mov	r1, r6
    3eb0:	e08f2002 	add	r2, pc, r2
    3eb4:	e3a03001 	mov	r3, #1
    3eb8:	e5940018 	ldr	r0, [r4, #24]
    3ebc:	ebfffffe 	bl	0 <switch_channel_set_variable_var_check>
    3ec0:	e59525a0 	ldr	r2, [r5, #1440]	; 0x5a0
    3ec4:	e59f1034 	ldr	r1, [pc, #52]	; 3f00 <switch_core_session_apply_crypto+0x178>
    3ec8:	e5940018 	ldr	r0, [r4, #24]
    3ecc:	e0822082 	add	r2, r2, r2, lsl #1
    3ed0:	e08f1001 	add	r1, pc, r1
    3ed4:	e3a03001 	mov	r3, #1
    3ed8:	e7972102 	ldr	r2, [r7, r2, lsl #2]
    3edc:	e28dd008 	add	sp, sp, #8
    3ee0:	e8bd41f0 	pop	{r4, r5, r6, r7, r8, lr}
    3ee4:	eafffffe 	b	0 <switch_channel_set_variable_var_check>
    3ee8:	00000148 	.word	0x00000148
    3eec:	00000140 	.word	0x00000140
    3ef0:	000056cc 	.word	0x000056cc
    3ef4:	00002c98 	.word	0x00002c98
    3ef8:	000000d4 	.word	0x000000d4
    3efc:	00000044 	.word	0x00000044
    3f00:	00000028 	.word	0x00000028

00003f04 <switch_core_media_set_rtp_session>:
    3f04:	e59f3018 	ldr	r3, [pc, #24]	; 3f24 <switch_core_media_set_rtp_session+0x20>
    3f08:	e7903003 	ldr	r3, [r0, r3]
    3f0c:	e3530000 	cmp	r3, #0
    3f10:	159f0010 	ldrne	r0, [pc, #16]	; 3f28 <switch_core_media_set_rtp_session+0x24>
    3f14:	10233190 	mlane	r3, r0, r1, r3
    3f18:	158325f8 	strne	r2, [r3, #1528]	; 0x5f8
    3f1c:	158315f4 	strne	r1, [r3, #1524]	; 0x5f4
    3f20:	e12fff1e 	bx	lr
    3f24:	000056cc 	.word	0x000056cc
    3f28:	00002c98 	.word	0x00002c98

00003f2c <switch_core_session_check_incoming_crypto>:
    3f2c:	e92d4ff0 	push	{r4, r5, r6, r7, r8, r9, sl, fp, lr}
    3f30:	e24dd034 	sub	sp, sp, #52	; 0x34
    3f34:	e1a0a000 	mov	sl, r0
    3f38:	e58d102c 	str	r1, [sp, #44]	; 0x2c
    3f3c:	e59f1790 	ldr	r1, [pc, #1936]	; 46d4 <switch_core_session_check_incoming_crypto+0x7a8>
    3f40:	e58d2028 	str	r2, [sp, #40]	; 0x28
    3f44:	e1a06003 	mov	r6, r3
    3f48:	e7901001 	ldr	r1, [r0, r1]
    3f4c:	e3510000 	cmp	r1, #0
    3f50:	e58d1024 	str	r1, [sp, #36]	; 0x24
    3f54:	059d0024 	ldreq	r0, [sp, #36]	; 0x24
    3f58:	0a0000ec 	beq	4310 <switch_core_session_check_incoming_crypto+0x3e4>
    3f5c:	e59f3774 	ldr	r3, [pc, #1908]	; 46d8 <switch_core_session_check_incoming_crypto+0x7ac>
    3f60:	e7913003 	ldr	r3, [r1, r3]
    3f64:	e3530002 	cmp	r3, #2
    3f68:	03e00000 	mvneq	r0, #0
    3f6c:	0a0000e7 	beq	4310 <switch_core_session_check_incoming_crypto+0x3e4>
    3f70:	e59f2764 	ldr	r2, [pc, #1892]	; 46dc <switch_core_session_check_incoming_crypto+0x7b0>
    3f74:	e59dc028 	ldr	ip, [sp, #40]	; 0x28
    3f78:	e59f3760 	ldr	r3, [pc, #1888]	; 46e0 <switch_core_session_check_incoming_crypto+0x7b4>
    3f7c:	e0221c92 	mla	r2, r2, ip, r1
    3f80:	e7913003 	ldr	r3, [r1, r3]
    3f84:	e2822050 	add	r2, r2, #80	; 0x50
    3f88:	e3530009 	cmp	r3, #9
    3f8c:	03a04000 	moveq	r4, #0
    3f90:	e58d2020 	str	r2, [sp, #32]
    3f94:	01a05004 	moveq	r5, r4
    3f98:	0a000038 	beq	4080 <switch_core_session_check_incoming_crypto+0x154>
    3f9c:	e59fb740 	ldr	fp, [pc, #1856]	; 46e4 <switch_core_session_check_incoming_crypto+0x7b8>
    3fa0:	e59f5740 	ldr	r5, [pc, #1856]	; 46e8 <switch_core_session_check_incoming_crypto+0x7bc>
    3fa4:	e59f9740 	ldr	r9, [pc, #1856]	; 46ec <switch_core_session_check_incoming_crypto+0x7c0>
    3fa8:	e2818c5d 	add	r8, r1, #23808	; 0x5d00
    3fac:	e08fb00b 	add	fp, pc, fp
    3fb0:	e08f5005 	add	r5, pc, r5
    3fb4:	e08f9009 	add	r9, pc, r9
    3fb8:	e2888008 	add	r8, r8, #8
    3fbc:	e28bbfc3 	add	fp, fp, #780	; 0x30c
    3fc0:	ea000002 	b	3fd0 <switch_core_session_check_incoming_crypto+0xa4>
    3fc4:	e5b83004 	ldr	r3, [r8, #4]!
    3fc8:	e3530009 	cmp	r3, #9
    3fcc:	0a000135 	beq	44a8 <switch_core_session_check_incoming_crypto+0x57c>
    3fd0:	e0833083 	add	r3, r3, r3, lsl #1
    3fd4:	e1a0200b 	mov	r2, fp
    3fd8:	e0853103 	add	r3, r5, r3, lsl #2
    3fdc:	e3a00003 	mov	r0, #3
    3fe0:	e593c004 	ldr	ip, [r3, #4]
    3fe4:	e1a01009 	mov	r1, r9
    3fe8:	e59f3700 	ldr	r3, [pc, #1792]	; 46f0 <switch_core_session_check_incoming_crypto+0x7c4>
    3fec:	e08cc08c 	add	ip, ip, ip, lsl #1
    3ff0:	e3a07007 	mov	r7, #7
    3ff4:	e795410c 	ldr	r4, [r5, ip, lsl #2]
    3ff8:	e085c10c 	add	ip, r5, ip, lsl #2
    3ffc:	e58dc01c 	str	ip, [sp, #28]
    4000:	e59fc6ec 	ldr	ip, [pc, #1772]	; 46f4 <switch_core_session_check_incoming_crypto+0x7c8>
    4004:	e58da000 	str	sl, [sp]
    4008:	e08fc00c 	add	ip, pc, ip
    400c:	e58dc008 	str	ip, [sp, #8]
    4010:	e58d7004 	str	r7, [sp, #4]
    4014:	e58d400c 	str	r4, [sp, #12]
    4018:	e58d6010 	str	r6, [sp, #16]
    401c:	ebfffffe 	bl	0 <switch_log_printf>
    4020:	e1a00004 	mov	r0, r4
    4024:	e1a01006 	mov	r1, r6
    4028:	ebfffffe 	bl	0 <switch_stristr>
    402c:	e3500000 	cmp	r0, #0
    4030:	0affffe3 	beq	3fc4 <switch_core_session_check_incoming_crypto+0x98>
    4034:	e59dc01c 	ldr	ip, [sp, #28]
    4038:	e1a01009 	mov	r1, r9
    403c:	e1a0200b 	mov	r2, fp
    4040:	e59c5004 	ldr	r5, [ip, #4]
    4044:	e59fc6ac 	ldr	ip, [pc, #1708]	; 46f8 <switch_core_session_check_incoming_crypto+0x7cc>
    4048:	e3a00003 	mov	r0, #3
    404c:	e3a03e4a 	mov	r3, #1184	; 0x4a0
    4050:	e08fc00c 	add	ip, pc, ip
    4054:	e58da000 	str	sl, [sp]
    4058:	e58d7004 	str	r7, [sp, #4]
    405c:	e58dc008 	str	ip, [sp, #8]
    4060:	e58d400c 	str	r4, [sp, #12]
    4064:	ebfffffe 	bl	0 <switch_log_printf>
    4068:	e59f168c 	ldr	r1, [pc, #1676]	; 46fc <switch_core_session_check_incoming_crypto+0x7d0>
    406c:	e59a0018 	ldr	r0, [sl, #24]
    4070:	e08f1001 	add	r1, pc, r1
    4074:	e1a02004 	mov	r2, r4
    4078:	e3a03001 	mov	r3, #1
    407c:	ebfffffe 	bl	0 <switch_channel_set_variable_var_check>
    4080:	e59dc020 	ldr	ip, [sp, #32]
    4084:	e59c35a0 	ldr	r3, [ip, #1440]	; 0x5a0
    4088:	e0833183 	add	r3, r3, r3, lsl #3
    408c:	e08c3203 	add	r3, ip, r3, lsl #4
    4090:	e593308c 	ldr	r3, [r3, #140]	; 0x8c
    4094:	e3530000 	cmp	r3, #0
    4098:	0a00009e 	beq	4318 <switch_core_session_check_incoming_crypto+0x3ec>
    409c:	e59c05a8 	ldr	r0, [ip, #1448]	; 0x5a8
    40a0:	ebfffffe 	bl	0 <switch_rtp_ready>
    40a4:	e3500000 	cmp	r0, #0
    40a8:	0a00009a 	beq	4318 <switch_core_session_check_incoming_crypto+0x3ec>
    40ac:	e59dc020 	ldr	ip, [sp, #32]
    40b0:	e3560000 	cmp	r6, #0
    40b4:	e59c35a0 	ldr	r3, [ip, #1440]	; 0x5a0
    40b8:	0a000149 	beq	45e4 <switch_core_session_check_incoming_crypto+0x6b8>
    40bc:	e3530009 	cmp	r3, #9
    40c0:	059c759c 	ldreq	r7, [ip, #1436]	; 0x59c
    40c4:	0a000008 	beq	40ec <switch_core_session_check_incoming_crypto+0x1c0>
    40c8:	e59dc020 	ldr	ip, [sp, #32]
    40cc:	e0833183 	add	r3, r3, r3, lsl #3
    40d0:	e1a00006 	mov	r0, r6
    40d4:	e08c3203 	add	r3, ip, r3, lsl #4
    40d8:	e593708c 	ldr	r7, [r3, #140]	; 0x8c
    40dc:	e1a01007 	mov	r1, r7
    40e0:	ebfffffe 	bl	0 <strcmp>
    40e4:	e3500000 	cmp	r0, #0
    40e8:	0a0000f1 	beq	44b4 <switch_core_session_check_incoming_crypto+0x588>
    40ec:	e59f860c 	ldr	r8, [pc, #1548]	; 4700 <switch_core_session_check_incoming_crypto+0x7d4>
    40f0:	e1a01007 	mov	r1, r7
    40f4:	e08f8008 	add	r8, pc, r8
    40f8:	e1a00008 	mov	r0, r8
    40fc:	ebfffffe 	bl	0 <switch_stristr>
    4100:	e1a01006 	mov	r1, r6
    4104:	e1a07000 	mov	r7, r0
    4108:	e1a00008 	mov	r0, r8
    410c:	ebfffffe 	bl	0 <switch_stristr>
    4110:	e59dc05c 	ldr	ip, [sp, #92]	; 0x5c
    4114:	e35c0000 	cmp	ip, #0
    4118:	e1a08000 	mov	r8, r0
    411c:	1a000024 	bne	41b4 <switch_core_session_check_incoming_crypto+0x288>
    4120:	e3540000 	cmp	r4, #0
    4124:	0a000132 	beq	45f4 <switch_core_session_check_incoming_crypto+0x6c8>
    4128:	e1a02004 	mov	r2, r4
    412c:	e59d102c 	ldr	r1, [sp, #44]	; 0x2c
    4130:	e3a03001 	mov	r3, #1
    4134:	e59a0018 	ldr	r0, [sl, #24]
    4138:	ebfffffe 	bl	0 <switch_channel_set_variable_var_check>
    413c:	e59f2590 	ldr	r2, [pc, #1424]	; 46d4 <switch_core_session_check_incoming_crypto+0x7a8>
    4140:	e1a03005 	mov	r3, r5
    4144:	e3a0c001 	mov	ip, #1
    4148:	e79a0002 	ldr	r0, [sl, r2]
    414c:	e59d1028 	ldr	r1, [sp, #40]	; 0x28
    4150:	e59d2058 	ldr	r2, [sp, #88]	; 0x58
    4154:	e58dc000 	str	ip, [sp]
    4158:	ebfff5e5 	bl	18f4 <switch_core_media_build_crypto.constprop.8>
    415c:	e59dc020 	ldr	ip, [sp, #32]
    4160:	e59d105c 	ldr	r1, [sp, #92]	; 0x5c
    4164:	e3a0200a 	mov	r2, #10
    4168:	e1a00006 	mov	r0, r6
    416c:	e59c45a8 	ldr	r4, [ip, #1448]	; 0x5a8
    4170:	ebfffffe 	bl	0 <strtol>
    4174:	e59de020 	ldr	lr, [sp, #32]
    4178:	e59f3584 	ldr	r3, [pc, #1412]	; 4704 <switch_core_session_check_incoming_crypto+0x7d8>
    417c:	e0851085 	add	r1, r5, r5, lsl #1
    4180:	e59ec5a0 	ldr	ip, [lr, #1440]	; 0x5a0
    4184:	e08f3003 	add	r3, pc, r3
    4188:	e0833101 	add	r3, r3, r1, lsl #2
    418c:	e08cc18c 	add	ip, ip, ip, lsl #3
    4190:	e59d105c 	ldr	r1, [sp, #92]	; 0x5c
    4194:	e08ec20c 	add	ip, lr, ip, lsl #4
    4198:	e593e008 	ldr	lr, [r3, #8]
    419c:	e59c3084 	ldr	r3, [ip, #132]	; 0x84
    41a0:	e28cc004 	add	ip, ip, #4
    41a4:	e88d5000 	stm	sp, {ip, lr}
    41a8:	e1a02000 	mov	r2, r0
    41ac:	e1a00004 	mov	r0, r4
    41b0:	ebfffffe 	bl	0 <switch_rtp_add_crypto_key>
    41b4:	e3580000 	cmp	r8, #0
    41b8:	13570000 	cmpne	r7, #0
    41bc:	0a0000a9 	beq	4468 <switch_core_session_check_incoming_crypto+0x53c>
    41c0:	e1a00007 	mov	r0, r7
    41c4:	e1a01008 	mov	r1, r8
    41c8:	e3a02017 	mov	r2, #23
    41cc:	ebfffffe 	bl	0 <strncasecmp>
    41d0:	e3500000 	cmp	r0, #0
    41d4:	1a0000a3 	bne	4468 <switch_core_session_check_incoming_crypto+0x53c>
    41d8:	e59dc020 	ldr	ip, [sp, #32]
    41dc:	e59f7524 	ldr	r7, [pc, #1316]	; 4708 <switch_core_session_check_incoming_crypto+0x7dc>
    41e0:	e59f4524 	ldr	r4, [pc, #1316]	; 470c <switch_core_session_check_incoming_crypto+0x7e0>
    41e4:	e58c55a0 	str	r5, [ip, #1440]	; 0x5a0
    41e8:	e3a0c007 	mov	ip, #7
    41ec:	e58dc004 	str	ip, [sp, #4]
    41f0:	e08f7007 	add	r7, pc, r7
    41f4:	e59fc514 	ldr	ip, [pc, #1300]	; 4710 <switch_core_session_check_incoming_crypto+0x7e4>
    41f8:	e08f4004 	add	r4, pc, r4
    41fc:	e2877fc3 	add	r7, r7, #780	; 0x30c
    4200:	e1a01004 	mov	r1, r4
    4204:	e08fc00c 	add	ip, pc, ip
    4208:	e3a00003 	mov	r0, #3
    420c:	e1a02007 	mov	r2, r7
    4210:	e59f34fc 	ldr	r3, [pc, #1276]	; 4714 <switch_core_session_check_incoming_crypto+0x7e8>
    4214:	e58dc008 	str	ip, [sp, #8]
    4218:	e58da000 	str	sl, [sp]
    421c:	e58d600c 	str	r6, [sp, #12]
    4220:	ebfffffe 	bl	0 <switch_log_printf>
    4224:	e59dc020 	ldr	ip, [sp, #32]
    4228:	e1a02004 	mov	r2, r4
    422c:	e1a03007 	mov	r3, r7
    4230:	e59c45a0 	ldr	r4, [ip, #1440]	; 0x5a0
    4234:	e59fc4dc 	ldr	ip, [pc, #1244]	; 4718 <switch_core_session_check_incoming_crypto+0x7ec>
    4238:	e1a0000a 	mov	r0, sl
    423c:	e1a01006 	mov	r1, r6
    4240:	e58dc000 	str	ip, [sp]
    4244:	ebfffffe 	bl	0 <switch_core_perform_session_strdup>
    4248:	e59dc020 	ldr	ip, [sp, #32]
    424c:	e0844184 	add	r4, r4, r4, lsl #3
    4250:	e59c35a4 	ldr	r3, [ip, #1444]	; 0x5a4
    4254:	e08c2204 	add	r2, ip, r4, lsl #4
    4258:	e3530000 	cmp	r3, #0
    425c:	e582008c 	str	r0, [r2, #140]	; 0x8c
    4260:	0a0000b6 	beq	4540 <switch_core_session_check_incoming_crypto+0x614>
    4264:	e3530001 	cmp	r3, #1
    4268:	0a000102 	beq	4678 <switch_core_session_check_incoming_crypto+0x74c>
    426c:	e59dc020 	ldr	ip, [sp, #32]
    4270:	e59de058 	ldr	lr, [sp, #88]	; 0x58
    4274:	e59c35a0 	ldr	r3, [ip, #1440]	; 0x5a0
    4278:	e59c05a8 	ldr	r0, [ip, #1448]	; 0x5a8
    427c:	e0833183 	add	r3, r3, r3, lsl #3
    4280:	e78ce203 	str	lr, [ip, r3, lsl #4]
    4284:	ebfffffe 	bl	0 <switch_rtp_ready>
    4288:	e3500000 	cmp	r0, #0
    428c:	0a0000a9 	beq	4538 <switch_core_session_check_incoming_crypto+0x60c>
    4290:	e59a0018 	ldr	r0, [sl, #24]
    4294:	e3a0105c 	mov	r1, #92	; 0x5c
    4298:	ebfffffe 	bl	0 <switch_channel_test_flag>
    429c:	e3500000 	cmp	r0, #0
    42a0:	0a0000a4 	beq	4538 <switch_core_session_check_incoming_crypto+0x60c>
    42a4:	e59dc020 	ldr	ip, [sp, #32]
    42a8:	e3a02001 	mov	r2, #1
    42ac:	e59c35a0 	ldr	r3, [ip, #1440]	; 0x5a0
    42b0:	e0833183 	add	r3, r3, r3, lsl #3
    42b4:	e08c0203 	add	r0, ip, r3, lsl #4
    42b8:	e590108c 	ldr	r1, [r0, #140]	; 0x8c
    42bc:	ebfffffe 	bl	3b7c <switch_core_media_add_crypto>
    42c0:	e59dc020 	ldr	ip, [sp, #32]
    42c4:	e59c15a0 	ldr	r1, [ip, #1440]	; 0x5a0
    42c8:	e59c05a8 	ldr	r0, [ip, #1448]	; 0x5a8
    42cc:	e0811181 	add	r1, r1, r1, lsl #3
    42d0:	e1a01201 	lsl	r1, r1, #4
    42d4:	e08c3001 	add	r3, ip, r1
    42d8:	e79c2001 	ldr	r2, [ip, r1]
    42dc:	e5933084 	ldr	r3, [r3, #132]	; 0x84
    42e0:	e08c1001 	add	r1, ip, r1
    42e4:	e59fc430 	ldr	ip, [pc, #1072]	; 471c <switch_core_session_check_incoming_crypto+0x7f0>
    42e8:	e0834083 	add	r4, r3, r3, lsl #1
    42ec:	e08fc00c 	add	ip, pc, ip
    42f0:	e08cc104 	add	ip, ip, r4, lsl #2
    42f4:	e281e044 	add	lr, r1, #68	; 0x44
    42f8:	e59cc008 	ldr	ip, [ip, #8]
    42fc:	e3a01001 	mov	r1, #1
    4300:	e58de000 	str	lr, [sp]
    4304:	e58dc004 	str	ip, [sp, #4]
    4308:	ebfffffe 	bl	0 <switch_rtp_add_crypto_key>
    430c:	e3a00001 	mov	r0, #1
    4310:	e28dd034 	add	sp, sp, #52	; 0x34
    4314:	e8bd8ff0 	pop	{r4, r5, r6, r7, r8, r9, sl, fp, pc}
    4318:	e59dc020 	ldr	ip, [sp, #32]
    431c:	e59c05a8 	ldr	r0, [ip, #1448]	; 0x5a8
    4320:	ebfffffe 	bl	0 <switch_rtp_ready>
    4324:	e3500000 	cmp	r0, #0
    4328:	13a00000 	movne	r0, #0
    432c:	1afffff7 	bne	4310 <switch_core_session_check_incoming_crypto+0x3e4>
    4330:	e3540000 	cmp	r4, #0
    4334:	0a000099 	beq	45a0 <switch_core_session_check_incoming_crypto+0x674>
    4338:	e59dc020 	ldr	ip, [sp, #32]
    433c:	e59f83dc 	ldr	r8, [pc, #988]	; 4720 <switch_core_session_check_incoming_crypto+0x7f4>
    4340:	e59f73dc 	ldr	r7, [pc, #988]	; 4724 <switch_core_session_check_incoming_crypto+0x7f8>
    4344:	e08f8008 	add	r8, pc, r8
    4348:	e58c55a0 	str	r5, [ip, #1440]	; 0x5a0
    434c:	e08f7007 	add	r7, pc, r7
    4350:	e59fc3d0 	ldr	ip, [pc, #976]	; 4728 <switch_core_session_check_incoming_crypto+0x7fc>
    4354:	e2888fc3 	add	r8, r8, #780	; 0x30c
    4358:	e1a01006 	mov	r1, r6
    435c:	e1a02007 	mov	r2, r7
    4360:	e1a03008 	mov	r3, r8
    4364:	e1a0000a 	mov	r0, sl
    4368:	e58dc000 	str	ip, [sp]
    436c:	ebfffffe 	bl	0 <switch_core_perform_session_strdup>
    4370:	e59de020 	ldr	lr, [sp, #32]
    4374:	e085c185 	add	ip, r5, r5, lsl #3
    4378:	e59f33ac 	ldr	r3, [pc, #940]	; 472c <switch_core_session_check_incoming_crypto+0x800>
    437c:	e08ec20c 	add	ip, lr, ip, lsl #4
    4380:	e1a01007 	mov	r1, r7
    4384:	e1a02008 	mov	r2, r8
    4388:	e58c008c 	str	r0, [ip, #140]	; 0x8c
    438c:	e3a00007 	mov	r0, #7
    4390:	e58d0004 	str	r0, [sp, #4]
    4394:	e59f0394 	ldr	r0, [pc, #916]	; 4730 <switch_core_session_check_incoming_crypto+0x804>
    4398:	e58da000 	str	sl, [sp]
    439c:	e08f0000 	add	r0, pc, r0
    43a0:	e58d0008 	str	r0, [sp, #8]
    43a4:	e59ec5a0 	ldr	ip, [lr, #1440]	; 0x5a0
    43a8:	e3a00003 	mov	r0, #3
    43ac:	e08cc18c 	add	ip, ip, ip, lsl #3
    43b0:	e08ec20c 	add	ip, lr, ip, lsl #4
    43b4:	e59cc08c 	ldr	ip, [ip, #140]	; 0x8c
    43b8:	e58dc00c 	str	ip, [sp, #12]
    43bc:	ebfffffe 	bl	0 <switch_log_printf>
    43c0:	e59dc020 	ldr	ip, [sp, #32]
    43c4:	e59c35a4 	ldr	r3, [ip, #1444]	; 0x5a4
    43c8:	e3530000 	cmp	r3, #0
    43cc:	0a000048 	beq	44f4 <switch_core_session_check_incoming_crypto+0x5c8>
    43d0:	e3530001 	cmp	r3, #1
    43d4:	0a000097 	beq	4638 <switch_core_session_check_incoming_crypto+0x70c>
    43d8:	e59dc020 	ldr	ip, [sp, #32]
    43dc:	e59de058 	ldr	lr, [sp, #88]	; 0x58
    43e0:	e59d102c 	ldr	r1, [sp, #44]	; 0x2c
    43e4:	e59c05a0 	ldr	r0, [ip, #1440]	; 0x5a0
    43e8:	e1a02004 	mov	r2, r4
    43ec:	e3a03001 	mov	r3, #1
    43f0:	e0800180 	add	r0, r0, r0, lsl #3
    43f4:	e78ce200 	str	lr, [ip, r0, lsl #4]
    43f8:	e59a0018 	ldr	r0, [sl, #24]
    43fc:	ebfffffe 	bl	0 <switch_channel_set_variable_var_check>
    4400:	e59dc024 	ldr	ip, [sp, #36]	; 0x24
    4404:	e3a0105c 	mov	r1, #92	; 0x5c
    4408:	e3a02001 	mov	r2, #1
    440c:	e59c3000 	ldr	r3, [ip]
    4410:	e5930018 	ldr	r0, [r3, #24]
    4414:	ebfffffe 	bl	0 <switch_channel_set_flag_value>
    4418:	e59dc020 	ldr	ip, [sp, #32]
    441c:	e59c35a0 	ldr	r3, [ip, #1440]	; 0x5a0
    4420:	e0833183 	add	r3, r3, r3, lsl #3
    4424:	e08c3203 	add	r3, ip, r3, lsl #4
    4428:	e5933088 	ldr	r3, [r3, #136]	; 0x88
    442c:	e3530000 	cmp	r3, #0
    4430:	0a000002 	beq	4440 <switch_core_session_check_incoming_crypto+0x514>
    4434:	e5d33000 	ldrb	r3, [r3]
    4438:	e3530000 	cmp	r3, #0
    443c:	1a00003d 	bne	4538 <switch_core_session_check_incoming_crypto+0x60c>
    4440:	e59f328c 	ldr	r3, [pc, #652]	; 46d4 <switch_core_session_check_incoming_crypto+0x7a8>
    4444:	e3a04001 	mov	r4, #1
    4448:	e59d1028 	ldr	r1, [sp, #40]	; 0x28
    444c:	e79a0003 	ldr	r0, [sl, r3]
    4450:	e59d2058 	ldr	r2, [sp, #88]	; 0x58
    4454:	e1a03005 	mov	r3, r5
    4458:	e58d4000 	str	r4, [sp]
    445c:	ebfff524 	bl	18f4 <switch_core_media_build_crypto.constprop.8>
    4460:	e1a00004 	mov	r0, r4
    4464:	eaffffa9 	b	4310 <switch_core_session_check_incoming_crypto+0x3e4>
    4468:	e3a0c007 	mov	ip, #7
    446c:	e59f22c0 	ldr	r2, [pc, #704]	; 4734 <switch_core_session_check_incoming_crypto+0x808>
    4470:	e58dc004 	str	ip, [sp, #4]
    4474:	e59f12bc 	ldr	r1, [pc, #700]	; 4738 <switch_core_session_check_incoming_crypto+0x80c>
    4478:	e59fc2bc 	ldr	ip, [pc, #700]	; 473c <switch_core_session_check_incoming_crypto+0x810>
    447c:	e08f2002 	add	r2, pc, r2
    4480:	e3a00003 	mov	r0, #3
    4484:	e08fc00c 	add	ip, pc, ip
    4488:	e08f1001 	add	r1, pc, r1
    448c:	e2822fc3 	add	r2, r2, #780	; 0x30c
    4490:	e59f32a8 	ldr	r3, [pc, #680]	; 4740 <switch_core_session_check_incoming_crypto+0x814>
    4494:	e58da000 	str	sl, [sp]
    4498:	e58dc008 	str	ip, [sp, #8]
    449c:	ebfffffe 	bl	0 <switch_log_printf>
    44a0:	e3a00000 	mov	r0, #0
    44a4:	eaffff99 	b	4310 <switch_core_session_check_incoming_crypto+0x3e4>
    44a8:	e1a04000 	mov	r4, r0
    44ac:	e1a05000 	mov	r5, r0
    44b0:	eafffef2 	b	4080 <switch_core_session_check_incoming_crypto+0x154>
    44b4:	e3a0c007 	mov	ip, #7
    44b8:	e59f2284 	ldr	r2, [pc, #644]	; 4744 <switch_core_session_check_incoming_crypto+0x818>
    44bc:	e58dc004 	str	ip, [sp, #4]
    44c0:	e59f1280 	ldr	r1, [pc, #640]	; 4748 <switch_core_session_check_incoming_crypto+0x81c>
    44c4:	e59fc280 	ldr	ip, [pc, #640]	; 474c <switch_core_session_check_incoming_crypto+0x820>
    44c8:	e08f2002 	add	r2, pc, r2
    44cc:	e3a00003 	mov	r0, #3
    44d0:	e08fc00c 	add	ip, pc, ip
    44d4:	e08f1001 	add	r1, pc, r1
    44d8:	e2822fc3 	add	r2, r2, #780	; 0x30c
    44dc:	e59f326c 	ldr	r3, [pc, #620]	; 4750 <switch_core_session_check_incoming_crypto+0x824>
    44e0:	e58da000 	str	sl, [sp]
    44e4:	e58dc008 	str	ip, [sp, #8]
    44e8:	ebfffffe 	bl	0 <switch_log_printf>
    44ec:	e3a00001 	mov	r0, #1
    44f0:	eaffff86 	b	4310 <switch_core_session_check_incoming_crypto+0x3e4>
    44f4:	e59f1258 	ldr	r1, [pc, #600]	; 4754 <switch_core_session_check_incoming_crypto+0x828>
    44f8:	e1a02006 	mov	r2, r6
    44fc:	e08f1001 	add	r1, pc, r1
    4500:	e3a03001 	mov	r3, #1
    4504:	e59a0018 	ldr	r0, [sl, #24]
    4508:	ebfffffe 	bl	0 <switch_channel_set_variable_var_check>
    450c:	e1a00005 	mov	r0, r5
    4510:	e59a6018 	ldr	r6, [sl, #24]
    4514:	ebfffffe 	bl	2418 <switch_core_media_crypto_type2str>
    4518:	e59f1238 	ldr	r1, [pc, #568]	; 4758 <switch_core_session_check_incoming_crypto+0x82c>
    451c:	e59f2238 	ldr	r2, [pc, #568]	; 475c <switch_core_session_check_incoming_crypto+0x830>
    4520:	e08f1001 	add	r1, pc, r1
    4524:	e08f2002 	add	r2, pc, r2
    4528:	e1a03000 	mov	r3, r0
    452c:	e1a00006 	mov	r0, r6
    4530:	ebfffffe 	bl	0 <switch_channel_set_variable_printf>
    4534:	eaffffa7 	b	43d8 <switch_core_session_check_incoming_crypto+0x4ac>
    4538:	e3a00001 	mov	r0, #1
    453c:	eaffff73 	b	4310 <switch_core_session_check_incoming_crypto+0x3e4>
    4540:	e59f1218 	ldr	r1, [pc, #536]	; 4760 <switch_core_session_check_incoming_crypto+0x834>
    4544:	e1a02006 	mov	r2, r6
    4548:	e59a0018 	ldr	r0, [sl, #24]
    454c:	e08f1001 	add	r1, pc, r1
    4550:	e3a03001 	mov	r3, #1
    4554:	ebfffffe 	bl	0 <switch_channel_set_variable_var_check>
    4558:	e59f1204 	ldr	r1, [pc, #516]	; 4764 <switch_core_session_check_incoming_crypto+0x838>
    455c:	e59f2204 	ldr	r2, [pc, #516]	; 4768 <switch_core_session_check_incoming_crypto+0x83c>
    4560:	e59d3058 	ldr	r3, [sp, #88]	; 0x58
    4564:	e08f1001 	add	r1, pc, r1
    4568:	e08f2002 	add	r2, pc, r2
    456c:	e59a0018 	ldr	r0, [sl, #24]
    4570:	ebfffffe 	bl	0 <switch_channel_set_variable_printf>
    4574:	e1a00005 	mov	r0, r5
    4578:	e59a4018 	ldr	r4, [sl, #24]
    457c:	ebfffffe 	bl	2418 <switch_core_media_crypto_type2str>
    4580:	e59f11e4 	ldr	r1, [pc, #484]	; 476c <switch_core_session_check_incoming_crypto+0x840>
    4584:	e59f21e4 	ldr	r2, [pc, #484]	; 4770 <switch_core_session_check_incoming_crypto+0x844>
    4588:	e08f1001 	add	r1, pc, r1
    458c:	e08f2002 	add	r2, pc, r2
    4590:	e1a03000 	mov	r3, r0
    4594:	e1a00004 	mov	r0, r4
    4598:	ebfffffe 	bl	0 <switch_channel_set_variable_printf>
    459c:	eaffff32 	b	426c <switch_core_session_check_incoming_crypto+0x340>
    45a0:	e3a0c007 	mov	ip, #7
    45a4:	e59f21c8 	ldr	r2, [pc, #456]	; 4774 <switch_core_session_check_incoming_crypto+0x848>
    45a8:	e58dc004 	str	ip, [sp, #4]
    45ac:	e59f11c4 	ldr	r1, [pc, #452]	; 4778 <switch_core_session_check_incoming_crypto+0x84c>
    45b0:	e59fc1c4 	ldr	ip, [pc, #452]	; 477c <switch_core_session_check_incoming_crypto+0x850>
    45b4:	e08f2002 	add	r2, pc, r2
    45b8:	e3a00003 	mov	r0, #3
    45bc:	e08fc00c 	add	ip, pc, ip
    45c0:	e08f1001 	add	r1, pc, r1
    45c4:	e2822fc3 	add	r2, r2, #780	; 0x30c
    45c8:	e59f31b0 	ldr	r3, [pc, #432]	; 4780 <switch_core_session_check_incoming_crypto+0x854>
    45cc:	e58da000 	str	sl, [sp]
    45d0:	e58dc008 	str	ip, [sp, #8]
    45d4:	e58d600c 	str	r6, [sp, #12]
    45d8:	ebfffffe 	bl	0 <switch_log_printf>
    45dc:	e1a00004 	mov	r0, r4
    45e0:	eaffff4a 	b	4310 <switch_core_session_check_incoming_crypto+0x3e4>
    45e4:	e0833183 	add	r3, r3, r3, lsl #3
    45e8:	e08c3203 	add	r3, ip, r3, lsl #4
    45ec:	e593708c 	ldr	r7, [r3, #140]	; 0x8c
    45f0:	eafffebd 	b	40ec <switch_core_session_check_incoming_crypto+0x1c0>
    45f4:	e3a0c007 	mov	ip, #7
    45f8:	e59f2184 	ldr	r2, [pc, #388]	; 4784 <switch_core_session_check_incoming_crypto+0x858>
    45fc:	e58dc004 	str	ip, [sp, #4]
    4600:	e59f1180 	ldr	r1, [pc, #384]	; 4788 <switch_core_session_check_incoming_crypto+0x85c>
    4604:	e59fc180 	ldr	ip, [pc, #384]	; 478c <switch_core_session_check_incoming_crypto+0x860>
    4608:	e08f2002 	add	r2, pc, r2
    460c:	e3a00003 	mov	r0, #3
    4610:	e08fc00c 	add	ip, pc, ip
    4614:	e08f1001 	add	r1, pc, r1
    4618:	e2822fc3 	add	r2, r2, #780	; 0x30c
    461c:	e59f316c 	ldr	r3, [pc, #364]	; 4790 <switch_core_session_check_incoming_crypto+0x864>
    4620:	e58da000 	str	sl, [sp]
    4624:	e58dc008 	str	ip, [sp, #8]
    4628:	e58d600c 	str	r6, [sp, #12]
    462c:	ebfffffe 	bl	0 <switch_log_printf>
    4630:	e1a00004 	mov	r0, r4
    4634:	eaffff35 	b	4310 <switch_core_session_check_incoming_crypto+0x3e4>
    4638:	e59f1154 	ldr	r1, [pc, #340]	; 4794 <switch_core_session_check_incoming_crypto+0x868>
    463c:	e1a02006 	mov	r2, r6
    4640:	e08f1001 	add	r1, pc, r1
    4644:	e59a0018 	ldr	r0, [sl, #24]
    4648:	ebfffffe 	bl	0 <switch_channel_set_variable_var_check>
    464c:	e1a00005 	mov	r0, r5
    4650:	e59a6018 	ldr	r6, [sl, #24]
    4654:	ebfffffe 	bl	2418 <switch_core_media_crypto_type2str>
    4658:	e59f1138 	ldr	r1, [pc, #312]	; 4798 <switch_core_session_check_incoming_crypto+0x86c>
    465c:	e59f2138 	ldr	r2, [pc, #312]	; 479c <switch_core_session_check_incoming_crypto+0x870>
    4660:	e08f1001 	add	r1, pc, r1
    4664:	e08f2002 	add	r2, pc, r2
    4668:	e1a03000 	mov	r3, r0
    466c:	e1a00006 	mov	r0, r6
    4670:	ebfffffe 	bl	0 <switch_channel_set_variable_printf>
    4674:	eaffff57 	b	43d8 <switch_core_session_check_incoming_crypto+0x4ac>
    4678:	e59f1120 	ldr	r1, [pc, #288]	; 47a0 <switch_core_session_check_incoming_crypto+0x874>
    467c:	e1a02006 	mov	r2, r6
    4680:	e08f1001 	add	r1, pc, r1
    4684:	e59a0018 	ldr	r0, [sl, #24]
    4688:	ebfffffe 	bl	0 <switch_channel_set_variable_var_check>
    468c:	e59f1110 	ldr	r1, [pc, #272]	; 47a4 <switch_core_session_check_incoming_crypto+0x878>
    4690:	e59f2110 	ldr	r2, [pc, #272]	; 47a8 <switch_core_session_check_incoming_crypto+0x87c>
    4694:	e59d3058 	ldr	r3, [sp, #88]	; 0x58
    4698:	e08f1001 	add	r1, pc, r1
    469c:	e08f2002 	add	r2, pc, r2
    46a0:	e59a0018 	ldr	r0, [sl, #24]
    46a4:	ebfffffe 	bl	0 <switch_channel_set_variable_printf>
    46a8:	e1a00005 	mov	r0, r5
    46ac:	e59a4018 	ldr	r4, [sl, #24]
    46b0:	ebfffffe 	bl	2418 <switch_core_media_crypto_type2str>
    46b4:	e59f10f0 	ldr	r1, [pc, #240]	; 47ac <switch_core_session_check_incoming_crypto+0x880>
    46b8:	e59f20f0 	ldr	r2, [pc, #240]	; 47b0 <switch_core_session_check_incoming_crypto+0x884>
    46bc:	e08f1001 	add	r1, pc, r1
    46c0:	e08f2002 	add	r2, pc, r2
    46c4:	e1a03000 	mov	r3, r0
    46c8:	e1a00004 	mov	r0, r4
    46cc:	ebfffffe 	bl	0 <switch_channel_set_variable_printf>
    46d0:	eafffee5 	b	426c <switch_core_session_check_incoming_crypto+0x340>
    46d4:	000056cc 	.word	0x000056cc
    46d8:	00005d04 	.word	0x00005d04
    46dc:	00002c98 	.word	0x00002c98
    46e0:	00005d08 	.word	0x00005d08
    46e4:	00000730 	.word	0x00000730
    46e8:	00000730 	.word	0x00000730
    46ec:	00000730 	.word	0x00000730
    46f0:	0000049b 	.word	0x0000049b
    46f4:	000006e4 	.word	0x000006e4
    46f8:	000006a0 	.word	0x000006a0
    46fc:	00000684 	.word	0x00000684
    4700:	00000604 	.word	0x00000604
    4704:	00000578 	.word	0x00000578
    4708:	00000510 	.word	0x00000510
    470c:	0000050c 	.word	0x0000050c
    4710:	00000504 	.word	0x00000504
    4714:	000004be 	.word	0x000004be
    4718:	000004bf 	.word	0x000004bf
    471c:	00000428 	.word	0x00000428
    4720:	000003d4 	.word	0x000003d4
    4724:	000003d0 	.word	0x000003d0
    4728:	000004e1 	.word	0x000004e1
    472c:	000004e2 	.word	0x000004e2
    4730:	0000038c 	.word	0x0000038c
    4734:	000002b0 	.word	0x000002b0
    4738:	000002a8 	.word	0x000002a8
    473c:	000002b0 	.word	0x000002b0
    4740:	000004d6 	.word	0x000004d6
    4744:	00000274 	.word	0x00000274
    4748:	0000026c 	.word	0x0000026c
    474c:	00000274 	.word	0x00000274
    4750:	000004a9 	.word	0x000004a9
    4754:	00000250 	.word	0x00000250
    4758:	00000230 	.word	0x00000230
    475c:	00000230 	.word	0x00000230
    4760:	0000020c 	.word	0x0000020c
    4764:	000001f8 	.word	0x000001f8
    4768:	000001f8 	.word	0x000001f8
    476c:	000001dc 	.word	0x000001dc
    4770:	000001dc 	.word	0x000001dc
    4774:	000001b8 	.word	0x000001b8
    4778:	000001b0 	.word	0x000001b0
    477c:	000001b8 	.word	0x000001b8
    4780:	000004dc 	.word	0x000004dc
    4784:	00000174 	.word	0x00000174
    4788:	0000016c 	.word	0x0000016c
    478c:	00000174 	.word	0x00000174
    4790:	000004b1 	.word	0x000004b1
    4794:	0000014c 	.word	0x0000014c
    4798:	00000130 	.word	0x00000130
    479c:	00000130 	.word	0x00000130
    47a0:	00000118 	.word	0x00000118
    47a4:	00000104 	.word	0x00000104
    47a8:	00000104 	.word	0x00000104
    47ac:	000000e8 	.word	0x000000e8
    47b0:	000000e8 	.word	0x000000e8

000047b4 <switch_media_handle_create>:
    47b4:	e3a03000 	mov	r3, #0
    47b8:	e92d4ff0 	push	{r4, r5, r6, r7, r8, r9, sl, fp, lr}
    47bc:	e1a04000 	mov	r4, r0
    47c0:	e5803000 	str	r3, [r0]
    47c4:	e5923074 	ldr	r3, [r2, #116]	; 0x74
    47c8:	e24dd00c 	sub	sp, sp, #12
    47cc:	e3530000 	cmp	r3, #0
    47d0:	e1a06002 	mov	r6, r2
    47d4:	e1a05001 	mov	r5, r1
    47d8:	0a000086 	beq	49f8 <switch_media_handle_create+0x244>
    47dc:	e5d33000 	ldrb	r3, [r3]
    47e0:	e3530000 	cmp	r3, #0
    47e4:	0a000083 	beq	49f8 <switch_media_handle_create+0x244>
    47e8:	e59f3218 	ldr	r3, [pc, #536]	; 4a08 <switch_media_handle_create+0x254>
    47ec:	e59f2218 	ldr	r2, [pc, #536]	; 4a0c <switch_media_handle_create+0x258>
    47f0:	e59fc218 	ldr	ip, [pc, #536]	; 4a10 <switch_media_handle_create+0x25c>
    47f4:	e08f3003 	add	r3, pc, r3
    47f8:	e2833fce 	add	r3, r3, #824	; 0x338
    47fc:	e1a00005 	mov	r0, r5
    4800:	e59f120c 	ldr	r1, [pc, #524]	; 4a14 <switch_media_handle_create+0x260>
    4804:	e08f2002 	add	r2, pc, r2
    4808:	e58dc000 	str	ip, [sp]
    480c:	ebfffffe 	bl	0 <switch_core_perform_session_alloc>
    4810:	e59f3200 	ldr	r3, [pc, #512]	; 4a18 <switch_media_handle_create+0x264>
    4814:	e3500000 	cmp	r0, #0
    4818:	e7850003 	str	r0, [r5, r3]
    481c:	03a00001 	moveq	r0, #1
    4820:	0a000072 	beq	49f0 <switch_media_handle_create+0x23c>
    4824:	e5805000 	str	r5, [r0]
    4828:	e5840000 	str	r0, [r4]
    482c:	e7957003 	ldr	r7, [r5, r3]
    4830:	e3a01000 	mov	r1, #0
    4834:	e1a03007 	mov	r3, r7
    4838:	e597004c 	ldr	r0, [r7, #76]	; 0x4c
    483c:	e1a02001 	mov	r2, r1
    4840:	e3800001 	orr	r0, r0, #1
    4844:	e587004c 	str	r0, [r7, #76]	; 0x4c
    4848:	e3a00001 	mov	r0, #1
    484c:	e5870008 	str	r0, [r7, #8]
    4850:	e58715f4 	str	r1, [r7, #1524]	; 0x5f4
    4854:	e3a00901 	mov	r0, #16384	; 0x4000
    4858:	e3a01009 	mov	r1, #9
    485c:	e5870618 	str	r0, [r7, #1560]	; 0x618
    4860:	e58715f0 	str	r1, [r7, #1520]	; 0x5f0
    4864:	e58320d4 	str	r2, [r3, #212]	; 0xd4
    4868:	e2822001 	add	r2, r2, #1
    486c:	e3520009 	cmp	r2, #9
    4870:	e2833090 	add	r3, r3, #144	; 0x90
    4874:	1afffffa 	bne	4864 <switch_media_handle_create+0xb0>
    4878:	e59f019c 	ldr	r0, [pc, #412]	; 4a1c <switch_media_handle_create+0x268>
    487c:	e3a0c901 	mov	ip, #16384	; 0x4000
    4880:	e2871db5 	add	r1, r7, #11584	; 0x2d40
    4884:	e787c000 	str	ip, [r7, r0]
    4888:	e2400024 	sub	r0, r0, #36	; 0x24
    488c:	e3a0c001 	mov	ip, #1
    4890:	e787c000 	str	ip, [r7, r0]
    4894:	e281102c 	add	r1, r1, #44	; 0x2c
    4898:	e2400004 	sub	r0, r0, #4
    489c:	e3a03000 	mov	r3, #0
    48a0:	e7872000 	str	r2, [r7, r0]
    48a4:	e4813090 	str	r3, [r1], #144	; 0x90
    48a8:	e2833001 	add	r3, r3, #1
    48ac:	e3530009 	cmp	r3, #9
    48b0:	1afffffb 	bne	48a4 <switch_media_handle_create+0xf0>
    48b4:	e2872c5d 	add	r2, r7, #23808	; 0x5d00
    48b8:	e59f1160 	ldr	r1, [pc, #352]	; 4a20 <switch_media_handle_create+0x26c>
    48bc:	e2822004 	add	r2, r2, #4
    48c0:	e3a0400a 	mov	r4, #10
    48c4:	e7876001 	str	r6, [r7, r1]
    48c8:	e2544001 	subs	r4, r4, #1
    48cc:	e5a23004 	str	r3, [r2, #4]!
    48d0:	1afffffc 	bne	48c8 <switch_media_handle_create+0x114>
    48d4:	e1a00005 	mov	r0, r5
    48d8:	ebfffffe 	bl	0 <switch_core_session_get_pool>
    48dc:	e59f6134 	ldr	r6, [pc, #308]	; 4a18 <switch_media_handle_create+0x264>
    48e0:	e2877c5b 	add	r7, r7, #23296	; 0x5b00
    48e4:	e3a01001 	mov	r1, #1
    48e8:	e59fa134 	ldr	sl, [pc, #308]	; 4a24 <switch_media_handle_create+0x270>
    48ec:	e08fa00a 	add	sl, pc, sl
    48f0:	e1a02000 	mov	r2, r0
    48f4:	e287001c 	add	r0, r7, #28
    48f8:	ebfffffe 	bl	0 <switch_mutex_init>
    48fc:	e1a00005 	mov	r0, r5
    4900:	e7957006 	ldr	r7, [r5, r6]
    4904:	ebfffffe 	bl	0 <switch_core_session_get_pool>
    4908:	e2877c5b 	add	r7, r7, #23296	; 0x5b00
    490c:	e2877020 	add	r7, r7, #32
    4910:	e3a01001 	mov	r1, #1
    4914:	e1a02000 	mov	r2, r0
    4918:	e1a00007 	mov	r0, r7
    491c:	ebfffffe 	bl	0 <switch_mutex_init>
    4920:	e1a00004 	mov	r0, r4
    4924:	e7959006 	ldr	r9, [r5, r6]
    4928:	ebfffffe 	bl	0 <time>
    492c:	e2893050 	add	r3, r9, #80	; 0x50
    4930:	e7958006 	ldr	r8, [r5, r6]
    4934:	e3a07001 	mov	r7, #1
    4938:	e0833000 	add	r3, r3, r0
    493c:	e5893760 	str	r3, [r9, #1888]	; 0x760
    4940:	e1a00004 	mov	r0, r4
    4944:	ebfffffe 	bl	0 <time>
    4948:	e288cdb3 	add	ip, r8, #11456	; 0x2cc0
    494c:	e28cc028 	add	ip, ip, #40	; 0x28
    4950:	e59f90d0 	ldr	r9, [pc, #208]	; 4a28 <switch_media_handle_create+0x274>
    4954:	e595e000 	ldr	lr, [r5]
    4958:	e08f9009 	add	r9, pc, r9
    495c:	e2899fce 	add	r9, r9, #824	; 0x338
    4960:	e795b006 	ldr	fp, [r5, r6]
    4964:	e3a01054 	mov	r1, #84	; 0x54
    4968:	e1a0200a 	mov	r2, sl
    496c:	e1a03009 	mov	r3, r9
    4970:	e08c0730 	add	r0, ip, r0, lsr r7
    4974:	e59fc0b0 	ldr	ip, [pc, #176]	; 4a2c <switch_media_handle_create+0x278>
    4978:	e788000c 	str	r0, [r8, ip]
    497c:	e1a0000e 	mov	r0, lr
    4980:	e24ccdb9 	sub	ip, ip, #11840	; 0x2e40
    4984:	e58dc000 	str	ip, [sp]
    4988:	ebfffffe 	bl	0 <switch_core_perform_alloc>
    498c:	e795c006 	ldr	ip, [r5, r6]
    4990:	e3a01054 	mov	r1, #84	; 0x54
    4994:	e1a0200a 	mov	r2, sl
    4998:	e1a03009 	mov	r3, r9
    499c:	e58b0794 	str	r0, [fp, #1940]	; 0x794
    49a0:	e59c0794 	ldr	r0, [ip, #1940]	; 0x794
    49a4:	e58c0790 	str	r0, [ip, #1936]	; 0x790
    49a8:	e59fc080 	ldr	ip, [pc, #128]	; 4a30 <switch_media_handle_create+0x27c>
    49ac:	e5c07012 	strb	r7, [r0, #18]
    49b0:	e5950000 	ldr	r0, [r5]
    49b4:	e7958006 	ldr	r8, [r5, r6]
    49b8:	e58dc000 	str	ip, [sp]
    49bc:	ebfffffe 	bl	0 <switch_core_perform_alloc>
    49c0:	e7953006 	ldr	r3, [r5, r6]
    49c4:	e59fc068 	ldr	ip, [pc, #104]	; 4a34 <switch_media_handle_create+0x280>
    49c8:	e3a0106f 	mov	r1, #111	; 0x6f
    49cc:	e1a02007 	mov	r2, r7
    49d0:	e788000c 	str	r0, [r8, ip]
    49d4:	e793000c 	ldr	r0, [r3, ip]
    49d8:	e24cc004 	sub	ip, ip, #4
    49dc:	e783000c 	str	r0, [r3, ip]
    49e0:	e5c07012 	strb	r7, [r0, #18]
    49e4:	e5950018 	ldr	r0, [r5, #24]
    49e8:	ebfffffe 	bl	0 <switch_channel_set_flag_value>
    49ec:	e1a00004 	mov	r0, r4
    49f0:	e28dd00c 	add	sp, sp, #12
    49f4:	e8bd8ff0 	pop	{r4, r5, r6, r7, r8, r9, sl, fp, pc}
    49f8:	e59f3038 	ldr	r3, [pc, #56]	; 4a38 <switch_media_handle_create+0x284>
    49fc:	e08f3003 	add	r3, pc, r3
    4a00:	e5863074 	str	r3, [r6, #116]	; 0x74
    4a04:	eaffff77 	b	47e8 <switch_media_handle_create+0x34>
    4a08:	0000020c 	.word	0x0000020c
    4a0c:	00000200 	.word	0x00000200
    4a10:	00000592 	.word	0x00000592
    4a14:	00005d30 	.word	0x00005d30
    4a18:	000056cc 	.word	0x000056cc
    4a1c:	000032b0 	.word	0x000032b0
    4a20:	00005cf8 	.word	0x00005cf8
    4a24:	00000130 	.word	0x00000130
    4a28:	000000c8 	.word	0x000000c8
    4a2c:	000033f8 	.word	0x000033f8
    4a30:	000005bb 	.word	0x000005bb
    4a34:	0000342c 	.word	0x0000342c
    4a38:	00000034 	.word	0x00000034

00004a3c <switch_media_handle_set_media_flag>:
    4a3c:	e3500000 	cmp	r0, #0
    4a40:	12811002 	addne	r1, r1, #2
    4a44:	e92d4008 	push	{r3, lr}
    4a48:	13a03001 	movne	r3, #1
    4a4c:	17803101 	strne	r3, [r0, r1, lsl #2]
    4a50:	18bd8008 	popne	{r3, pc}
    4a54:	e59f301c 	ldr	r3, [pc, #28]	; 4a78 <switch_media_handle_set_media_flag+0x3c>
    4a58:	e59f001c 	ldr	r0, [pc, #28]	; 4a7c <switch_media_handle_set_media_flag+0x40>
    4a5c:	e59f101c 	ldr	r1, [pc, #28]	; 4a80 <switch_media_handle_set_media_flag+0x44>
    4a60:	e08f3003 	add	r3, pc, r3
    4a64:	e08f0000 	add	r0, pc, r0
    4a68:	e08f1001 	add	r1, pc, r1
    4a6c:	e59f2010 	ldr	r2, [pc, #16]	; 4a84 <switch_media_handle_set_media_flag+0x48>
    4a70:	e2833fd5 	add	r3, r3, #852	; 0x354
    4a74:	ebfffffe 	bl	0 <__assert_fail>
    4a78:	00000010 	.word	0x00000010
    4a7c:	00000010 	.word	0x00000010
    4a80:	00000010 	.word	0x00000010
    4a84:	000005ca 	.word	0x000005ca

00004a88 <switch_media_handle_set_media_flags>:
    4a88:	e3500000 	cmp	r0, #0
    4a8c:	e92d4008 	push	{r3, lr}
    4a90:	13a03000 	movne	r3, #0
    4a94:	0a000007 	beq	4ab8 <switch_media_handle_set_media_flags+0x30>
    4a98:	e7912003 	ldr	r2, [r1, r3]
    4a9c:	e2833004 	add	r3, r3, #4
    4aa0:	e3520000 	cmp	r2, #0
    4aa4:	15802008 	strne	r2, [r0, #8]
    4aa8:	e3530044 	cmp	r3, #68	; 0x44
    4aac:	e2800004 	add	r0, r0, #4
    4ab0:	1afffff8 	bne	4a98 <switch_media_handle_set_media_flags+0x10>
    4ab4:	e8bd8008 	pop	{r3, pc}
    4ab8:	e59f301c 	ldr	r3, [pc, #28]	; 4adc <switch_media_handle_set_media_flags+0x54>
    4abc:	e59f001c 	ldr	r0, [pc, #28]	; 4ae0 <switch_media_handle_set_media_flags+0x58>
    4ac0:	e59f101c 	ldr	r1, [pc, #28]	; 4ae4 <switch_media_handle_set_media_flags+0x5c>
    4ac4:	e08f3003 	add	r3, pc, r3
    4ac8:	e08f0000 	add	r0, pc, r0
    4acc:	e08f1001 	add	r1, pc, r1
    4ad0:	e59f2010 	ldr	r2, [pc, #16]	; 4ae8 <switch_media_handle_set_media_flags+0x60>
    4ad4:	e2833fde 	add	r3, r3, #888	; 0x378
    4ad8:	ebfffffe 	bl	0 <__assert_fail>
    4adc:	00000010 	.word	0x00000010
    4ae0:	00000010 	.word	0x00000010
    4ae4:	00000010 	.word	0x00000010
    4ae8:	000005d3 	.word	0x000005d3

00004aec <switch_media_handle_clear_media_flag>:
    4aec:	e3500000 	cmp	r0, #0
    4af0:	12811002 	addne	r1, r1, #2
    4af4:	e92d4008 	push	{r3, lr}
    4af8:	13a03000 	movne	r3, #0
    4afc:	17803101 	strne	r3, [r0, r1, lsl #2]
    4b00:	18bd8008 	popne	{r3, pc}
    4b04:	e59f301c 	ldr	r3, [pc, #28]	; 4b28 <switch_media_handle_clear_media_flag+0x3c>
    4b08:	e59f001c 	ldr	r0, [pc, #28]	; 4b2c <switch_media_handle_clear_media_flag+0x40>
    4b0c:	e59f101c 	ldr	r1, [pc, #28]	; 4b30 <switch_media_handle_clear_media_flag+0x44>
    4b10:	e08f3003 	add	r3, pc, r3
    4b14:	e08f0000 	add	r0, pc, r0
    4b18:	e08f1001 	add	r1, pc, r1
    4b1c:	e59f2010 	ldr	r2, [pc, #16]	; 4b34 <switch_media_handle_clear_media_flag+0x48>
    4b20:	e2833fe7 	add	r3, r3, #924	; 0x39c
    4b24:	ebfffffe 	bl	0 <__assert_fail>
    4b28:	00000010 	.word	0x00000010
    4b2c:	00000010 	.word	0x00000010
    4b30:	00000010 	.word	0x00000010
    4b34:	000005df 	.word	0x000005df

00004b38 <switch_media_handle_test_media_flag>:
    4b38:	e3500000 	cmp	r0, #0
    4b3c:	e92d4008 	push	{r3, lr}
    4b40:	0a000002 	beq	4b50 <switch_media_handle_test_media_flag+0x18>
    4b44:	e2811002 	add	r1, r1, #2
    4b48:	e7900101 	ldr	r0, [r0, r1, lsl #2]
    4b4c:	e8bd8008 	pop	{r3, pc}
    4b50:	e59f301c 	ldr	r3, [pc, #28]	; 4b74 <switch_media_handle_test_media_flag+0x3c>
    4b54:	e59f001c 	ldr	r0, [pc, #28]	; 4b78 <switch_media_handle_test_media_flag+0x40>
    4b58:	e59f101c 	ldr	r1, [pc, #28]	; 4b7c <switch_media_handle_test_media_flag+0x44>
    4b5c:	e08f3003 	add	r3, pc, r3
    4b60:	e08f0000 	add	r0, pc, r0
    4b64:	e08f1001 	add	r1, pc, r1
    4b68:	e59f2010 	ldr	r2, [pc, #16]	; 4b80 <switch_media_handle_test_media_flag+0x48>
    4b6c:	e2833ff1 	add	r3, r3, #964	; 0x3c4
    4b70:	ebfffffe 	bl	0 <__assert_fail>
    4b74:	00000010 	.word	0x00000010
    4b78:	00000010 	.word	0x00000010
    4b7c:	00000010 	.word	0x00000010
    4b80:	000005e6 	.word	0x000005e6

00004b84 <generate_m.isra.4>:
    4b84:	e92d4ff0 	push	{r4, r5, r6, r7, r8, r9, sl, fp, lr}
    4b88:	e24ddfb3 	sub	sp, sp, #716	; 0x2cc
    4b8c:	e58d002c 	str	r0, [sp, #44]	; 0x2c
    4b90:	e58d1020 	str	r1, [sp, #32]
    4b94:	e58d2024 	str	r2, [sp, #36]	; 0x24
    4b98:	e28d003c 	add	r0, sp, #60	; 0x3c
    4b9c:	e3a01000 	mov	r1, #0
    4ba0:	e3a02c02 	mov	r2, #512	; 0x200
    4ba4:	e58d3034 	str	r3, [sp, #52]	; 0x34
    4ba8:	ebfffffe 	bl	0 <memset>
    4bac:	e59dc02c 	ldr	ip, [sp, #44]	; 0x2c
    4bb0:	e35c0000 	cmp	ip, #0
    4bb4:	0a000372 	beq	5984 <generate_m.isra.4+0xe00>
    4bb8:	e59f3de8 	ldr	r3, [pc, #3560]	; 59a8 <generate_m.isra.4+0xe24>
    4bbc:	e59dc02c 	ldr	ip, [sp, #44]	; 0x2c
    4bc0:	e79c7003 	ldr	r7, [ip, r3]
    4bc4:	e3570000 	cmp	r7, #0
    4bc8:	0a0001a5 	beq	5264 <generate_m.isra.4+0x6e0>
    4bcc:	e59d0020 	ldr	r0, [sp, #32]
    4bd0:	ebfffffe 	bl	0 <strlen>
    4bd4:	e59dc310 	ldr	ip, [sp, #784]	; 0x310
    4bd8:	e35c0000 	cmp	ip, #0
    4bdc:	e59dc020 	ldr	ip, [sp, #32]
    4be0:	e08c4000 	add	r4, ip, r0
    4be4:	e59dc024 	ldr	ip, [sp, #36]	; 0x24
    4be8:	e060500c 	rsb	r5, r0, ip
    4bec:	1a0001f5 	bne	53c8 <generate_m.isra.4+0x844>
    4bf0:	e59715f0 	ldr	r1, [r7, #1520]	; 0x5f0
    4bf4:	e2511009 	subs	r1, r1, #9
    4bf8:	13a01001 	movne	r1, #1
    4bfc:	e59d002c 	ldr	r0, [sp, #44]	; 0x2c
    4c00:	ebfff231 	bl	14cc <get_media_profile_name>
    4c04:	e59f2da0 	ldr	r2, [pc, #3488]	; 59ac <generate_m.isra.4+0xe28>
    4c08:	e59d3034 	ldr	r3, [sp, #52]	; 0x34
    4c0c:	e08f2002 	add	r2, pc, r2
    4c10:	e1a01005 	mov	r1, r5
    4c14:	e58d0000 	str	r0, [sp]
    4c18:	e1a00004 	mov	r0, r4
    4c1c:	ebfffffe 	bl	0 <switch_snprintf>
    4c20:	e59f3d88 	ldr	r3, [pc, #3464]	; 59b0 <generate_m.isra.4+0xe2c>
    4c24:	e7973003 	ldr	r3, [r7, r3]
    4c28:	e5932080 	ldr	r2, [r3, #128]	; 0x80
    4c2c:	e3520000 	cmp	r2, #0
    4c30:	d3a0a000 	movle	sl, #0
    4c34:	da00004a 	ble	4d64 <generate_m.isra.4+0x1e0>
    4c38:	e59fcd74 	ldr	ip, [pc, #3444]	; 59b4 <generate_m.isra.4+0xe30>
    4c3c:	e59f6d74 	ldr	r6, [pc, #3444]	; 59b8 <generate_m.isra.4+0xe34>
    4c40:	e2875c5a 	add	r5, r7, #23040	; 0x5a00
    4c44:	e3a0a000 	mov	sl, #0
    4c48:	e08fc00c 	add	ip, pc, ip
    4c4c:	e08f6006 	add	r6, pc, r6
    4c50:	e58dc01c 	str	ip, [sp, #28]
    4c54:	e2855048 	add	r5, r5, #72	; 0x48
    4c58:	e1a0400a 	mov	r4, sl
    4c5c:	ea00002d 	b	4d18 <generate_m.isra.4+0x194>
    4c60:	e1a00009 	mov	r0, r9
    4c64:	e59d101c 	ldr	r1, [sp, #28]
    4c68:	ebfffffe 	bl	0 <strcasecmp>
    4c6c:	e3500000 	cmp	r0, #0
    4c70:	0a000030 	beq	4d38 <generate_m.isra.4+0x1b4>
    4c74:	e59fed40 	ldr	lr, [pc, #3392]	; 59bc <generate_m.isra.4+0xe38>
    4c78:	e0c3eb9e 	smull	lr, r3, lr, fp
    4c7c:	e1a0bfcb 	asr	fp, fp, #31
    4c80:	e06bb343 	rsb	fp, fp, r3, asr #6
    4c84:	e5983000 	ldr	r3, [r8]
    4c88:	e3530000 	cmp	r3, #0
    4c8c:	1a00001b 	bne	4d00 <generate_m.isra.4+0x17c>
    4c90:	e59dc2f8 	ldr	ip, [sp, #760]	; 0x2f8
    4c94:	e35c0000 	cmp	ip, #0
    4c98:	1a000028 	bne	4d40 <generate_m.isra.4+0x1bc>
    4c9c:	e35a0000 	cmp	sl, #0
    4ca0:	01a0a00b 	moveq	sl, fp
    4ca4:	e0873004 	add	r3, r7, r4
    4ca8:	e2833c5b 	add	r3, r3, #23296	; 0x5b00
    4cac:	e5d380f0 	ldrb	r8, [r3, #240]	; 0xf0
    4cb0:	e3180080 	tst	r8, #128	; 0x80
    4cb4:	1a000006 	bne	4cd4 <generate_m.isra.4+0x150>
    4cb8:	e28defb2 	add	lr, sp, #712	; 0x2c8
    4cbc:	e08e3108 	add	r3, lr, r8, lsl #2
    4cc0:	e513228c 	ldr	r2, [r3, #-652]	; 0x28c
    4cc4:	e3520000 	cmp	r2, #0
    4cc8:	1a00000c 	bne	4d00 <generate_m.isra.4+0x17c>
    4ccc:	e3a02001 	mov	r2, #1
    4cd0:	e503228c 	str	r2, [r3, #-652]	; 0x28c
    4cd4:	e59d0020 	ldr	r0, [sp, #32]
    4cd8:	ebfffffe 	bl	0 <strlen>
    4cdc:	e59dc020 	ldr	ip, [sp, #32]
    4ce0:	e59f2cd8 	ldr	r2, [pc, #3288]	; 59c0 <generate_m.isra.4+0xe3c>
    4ce4:	e1a03008 	mov	r3, r8
    4ce8:	e08f2002 	add	r2, pc, r2
    4cec:	e1a01000 	mov	r1, r0
    4cf0:	e08c0000 	add	r0, ip, r0
    4cf4:	e59dc024 	ldr	ip, [sp, #36]	; 0x24
    4cf8:	e061100c 	rsb	r1, r1, ip
    4cfc:	ebfffffe 	bl	0 <switch_snprintf>
    4d00:	e59f3ca8 	ldr	r3, [pc, #3240]	; 59b0 <generate_m.isra.4+0xe2c>
    4d04:	e2844001 	add	r4, r4, #1
    4d08:	e7973003 	ldr	r3, [r7, r3]
    4d0c:	e5932080 	ldr	r2, [r3, #128]	; 0x80
    4d10:	e1540002 	cmp	r4, r2
    4d14:	aa000012 	bge	4d64 <generate_m.isra.4+0x1e0>
    4d18:	e5b58004 	ldr	r8, [r5, #4]!
    4d1c:	e1a01006 	mov	r1, r6
    4d20:	e5989008 	ldr	r9, [r8, #8]
    4d24:	e598b01c 	ldr	fp, [r8, #28]
    4d28:	e1a00009 	mov	r0, r9
    4d2c:	ebfffffe 	bl	0 <strcasecmp>
    4d30:	e3500000 	cmp	r0, #0
    4d34:	1affffc9 	bne	4c60 <generate_m.isra.4+0xdc>
    4d38:	e3a0b014 	mov	fp, #20
    4d3c:	eaffffd0 	b	4c84 <generate_m.isra.4+0x100>
    4d40:	e59dc2f8 	ldr	ip, [sp, #760]	; 0x2f8
    4d44:	e15c000b 	cmp	ip, fp
    4d48:	0affffd5 	beq	4ca4 <generate_m.isra.4+0x120>
    4d4c:	e59f3c5c 	ldr	r3, [pc, #3164]	; 59b0 <generate_m.isra.4+0xe2c>
    4d50:	e2844001 	add	r4, r4, #1
    4d54:	e7973003 	ldr	r3, [r7, r3]
    4d58:	e5932080 	ldr	r2, [r3, #128]	; 0x80
    4d5c:	e1540002 	cmp	r4, r2
    4d60:	baffffec 	blt	4d18 <generate_m.isra.4+0x194>
    4d64:	e5932088 	ldr	r2, [r3, #136]	; 0x88
    4d68:	e3520000 	cmp	r2, #0
    4d6c:	1a000002 	bne	4d7c <generate_m.isra.4+0x1f8>
    4d70:	e5d34078 	ldrb	r4, [r3, #120]	; 0x78
    4d74:	e354005f 	cmp	r4, #95	; 0x5f
    4d78:	8a0002e2 	bhi	5908 <generate_m.isra.4+0xd84>
    4d7c:	e1a00007 	mov	r0, r7
    4d80:	e3a01009 	mov	r1, #9
    4d84:	ebfffffe 	bl	4b38 <switch_media_handle_test_media_flag>
    4d88:	e3500000 	cmp	r0, #0
    4d8c:	0a00014d 	beq	52c8 <generate_m.isra.4+0x744>
    4d90:	e59d0020 	ldr	r0, [sp, #32]
    4d94:	ebfffffe 	bl	0 <strlen>
    4d98:	e59dc024 	ldr	ip, [sp, #36]	; 0x24
    4d9c:	e59f2c20 	ldr	r2, [pc, #3104]	; 59c4 <generate_m.isra.4+0xe40>
    4da0:	e08f2002 	add	r2, pc, r2
    4da4:	e060100c 	rsb	r1, r0, ip
    4da8:	e59dc020 	ldr	ip, [sp, #32]
    4dac:	e08c0000 	add	r0, ip, r0
    4db0:	ebfffffe 	bl	0 <switch_snprintf>
    4db4:	e3a02c02 	mov	r2, #512	; 0x200
    4db8:	e28d003c 	add	r0, sp, #60	; 0x3c
    4dbc:	e3a01000 	mov	r1, #0
    4dc0:	ebfffffe 	bl	0 <memset>
    4dc4:	e59f3be4 	ldr	r3, [pc, #3044]	; 59b0 <generate_m.isra.4+0xe2c>
    4dc8:	e7973003 	ldr	r3, [r7, r3]
    4dcc:	e5932080 	ldr	r2, [r3, #128]	; 0x80
    4dd0:	e3520000 	cmp	r2, #0
    4dd4:	da000091 	ble	5020 <generate_m.isra.4+0x49c>
    4dd8:	e59fcbe8 	ldr	ip, [pc, #3048]	; 59c8 <generate_m.isra.4+0xe44>
    4ddc:	e2878c5a 	add	r8, r7, #23040	; 0x5a00
    4de0:	e08fc00c 	add	ip, pc, ip
    4de4:	e58dc028 	str	ip, [sp, #40]	; 0x28
    4de8:	e59fcbdc 	ldr	ip, [pc, #3036]	; 59cc <generate_m.isra.4+0xe48>
    4dec:	e2876c5b 	add	r6, r7, #23296	; 0x5b00
    4df0:	e08fc00c 	add	ip, pc, ip
    4df4:	e58da01c 	str	sl, [sp, #28]
    4df8:	e58dc030 	str	ip, [sp, #48]	; 0x30
    4dfc:	e2888048 	add	r8, r8, #72	; 0x48
    4e00:	e28660f0 	add	r6, r6, #240	; 0xf0
    4e04:	e3a05000 	mov	r5, #0
    4e08:	e1a0a007 	mov	sl, r7
    4e0c:	ea000067 	b	4fb0 <generate_m.isra.4+0x42c>
    4e10:	e59f1bb8 	ldr	r1, [pc, #3000]	; 59d0 <generate_m.isra.4+0xe4c>
    4e14:	e1a00009 	mov	r0, r9
    4e18:	e08f1001 	add	r1, pc, r1
    4e1c:	ebfffffe 	bl	0 <strcasecmp>
    4e20:	e3500000 	cmp	r0, #0
    4e24:	0a00006d 	beq	4fe0 <generate_m.isra.4+0x45c>
    4e28:	e59feb8c 	ldr	lr, [pc, #2956]	; 59bc <generate_m.isra.4+0xe38>
    4e2c:	e59dc2f8 	ldr	ip, [sp, #760]	; 0x2f8
    4e30:	e0c3eb9e 	smull	lr, r3, lr, fp
    4e34:	e35c0000 	cmp	ip, #0
    4e38:	e1a0bfcb 	asr	fp, fp, #31
    4e3c:	e06bb343 	rsb	fp, fp, r3, asr #6
    4e40:	1a00006a 	bne	4ff0 <generate_m.isra.4+0x46c>
    4e44:	e59dc01c 	ldr	ip, [sp, #28]
    4e48:	e35c0000 	cmp	ip, #0
    4e4c:	01a0c00b 	moveq	ip, fp
    4e50:	e58dc01c 	str	ip, [sp, #28]
    4e54:	e5d63000 	ldrb	r3, [r6]
    4e58:	e3130080 	tst	r3, #128	; 0x80
    4e5c:	1a000006 	bne	4e7c <generate_m.isra.4+0x2f8>
    4e60:	e28defb2 	add	lr, sp, #712	; 0x2c8
    4e64:	e08e2103 	add	r2, lr, r3, lsl #2
    4e68:	e512128c 	ldr	r1, [r2, #-652]	; 0x28c
    4e6c:	e3510000 	cmp	r1, #0
    4e70:	1a000047 	bne	4f94 <generate_m.isra.4+0x410>
    4e74:	e3a01001 	mov	r1, #1
    4e78:	e502128c 	str	r1, [r2, #-652]	; 0x28c
    4e7c:	e59dc30c 	ldr	ip, [sp, #780]	; 0x30c
    4e80:	e594b010 	ldr	fp, [r4, #16]
    4e84:	e35c0000 	cmp	ip, #0
    4e88:	0a0000fe 	beq	5288 <generate_m.isra.4+0x704>
    4e8c:	e3a03000 	mov	r3, #0
    4e90:	e1a01003 	mov	r1, r3
    4e94:	e3a0207c 	mov	r2, #124	; 0x7c
    4e98:	e28d0d09 	add	r0, sp, #576	; 0x240
    4e9c:	e58d323c 	str	r3, [sp, #572]	; 0x23c
    4ea0:	ebfffffe 	bl	0 <memset>
    4ea4:	e59f2b28 	ldr	r2, [pc, #2856]	; 59d4 <generate_m.isra.4+0xe50>
    4ea8:	e594c018 	ldr	ip, [r4, #24]
    4eac:	e5943008 	ldr	r3, [r4, #8]
    4eb0:	e08f2002 	add	r2, pc, r2
    4eb4:	e3a01080 	mov	r1, #128	; 0x80
    4eb8:	e28d0f8f 	add	r0, sp, #572	; 0x23c
    4ebc:	e58dc000 	str	ip, [sp]
    4ec0:	ebfffffe 	bl	0 <switch_snprintf>
    4ec4:	e59d030c 	ldr	r0, [sp, #780]	; 0x30c
    4ec8:	e28d1f8f 	add	r1, sp, #572	; 0x23c
    4ecc:	e3e02000 	mvn	r2, #0
    4ed0:	ebfffffe 	bl	0 <switch_event_get_header_idx>
    4ed4:	e3500000 	cmp	r0, #0
    4ed8:	15d63000 	ldrbne	r3, [r6]
    4edc:	0a0000e2 	beq	526c <generate_m.isra.4+0x6e8>
    4ee0:	e59871d8 	ldr	r7, [r8, #472]	; 0x1d8
    4ee4:	e3570000 	cmp	r7, #0
    4ee8:	01a07000 	moveq	r7, r0
    4eec:	e353005f 	cmp	r3, #95	; 0x5f
    4ef0:	8a000005 	bhi	4f0c <generate_m.isra.4+0x388>
    4ef4:	e59dc02c 	ldr	ip, [sp, #44]	; 0x2c
    4ef8:	e3a0106e 	mov	r1, #110	; 0x6e
    4efc:	e59c0018 	ldr	r0, [ip, #24]
    4f00:	ebfffffe 	bl	0 <switch_channel_test_flag>
    4f04:	e3500000 	cmp	r0, #0
    4f08:	0a000014 	beq	4f60 <generate_m.isra.4+0x3dc>
    4f0c:	e5940008 	ldr	r0, [r4, #8]
    4f10:	e5d4102c 	ldrb	r1, [r4, #44]	; 0x2c
    4f14:	ebfff227 	bl	17b8 <get_channels>
    4f18:	e1a09000 	mov	r9, r0
    4f1c:	e3590001 	cmp	r9, #1
    4f20:	e59d0020 	ldr	r0, [sp, #32]
    4f24:	da0000d9 	ble	5290 <generate_m.isra.4+0x70c>
    4f28:	ebfffffe 	bl	0 <strlen>
    4f2c:	e59d2024 	ldr	r2, [sp, #36]	; 0x24
    4f30:	e59de020 	ldr	lr, [sp, #32]
    4f34:	e594c008 	ldr	ip, [r4, #8]
    4f38:	e5d63000 	ldrb	r3, [r6]
    4f3c:	e58dc000 	str	ip, [sp]
    4f40:	e58db004 	str	fp, [sp, #4]
    4f44:	e58d9008 	str	r9, [sp, #8]
    4f48:	e1a01000 	mov	r1, r0
    4f4c:	e0611002 	rsb	r1, r1, r2
    4f50:	e59f2a80 	ldr	r2, [pc, #2688]	; 59d8 <generate_m.isra.4+0xe54>
    4f54:	e08e0000 	add	r0, lr, r0
    4f58:	e08f2002 	add	r2, pc, r2
    4f5c:	ebfffffe 	bl	0 <switch_snprintf>
    4f60:	e3570000 	cmp	r7, #0
    4f64:	0a00000a 	beq	4f94 <generate_m.isra.4+0x410>
    4f68:	e59d0020 	ldr	r0, [sp, #32]
    4f6c:	ebfffffe 	bl	0 <strlen>
    4f70:	e59dc020 	ldr	ip, [sp, #32]
    4f74:	e5d63000 	ldrb	r3, [r6]
    4f78:	e59d2030 	ldr	r2, [sp, #48]	; 0x30
    4f7c:	e58d7000 	str	r7, [sp]
    4f80:	e1a01000 	mov	r1, r0
    4f84:	e08c0000 	add	r0, ip, r0
    4f88:	e59dc024 	ldr	ip, [sp, #36]	; 0x24
    4f8c:	e061100c 	rsb	r1, r1, ip
    4f90:	ebfffffe 	bl	0 <switch_snprintf>
    4f94:	e59f3a14 	ldr	r3, [pc, #2580]	; 59b0 <generate_m.isra.4+0xe2c>
    4f98:	e2855001 	add	r5, r5, #1
    4f9c:	e2866001 	add	r6, r6, #1
    4fa0:	e79a3003 	ldr	r3, [sl, r3]
    4fa4:	e5932080 	ldr	r2, [r3, #128]	; 0x80
    4fa8:	e1550002 	cmp	r5, r2
    4fac:	aa000019 	bge	5018 <generate_m.isra.4+0x494>
    4fb0:	e5b84004 	ldr	r4, [r8, #4]!
    4fb4:	e5943000 	ldr	r3, [r4]
    4fb8:	e594700c 	ldr	r7, [r4, #12]
    4fbc:	e3530000 	cmp	r3, #0
    4fc0:	e594b01c 	ldr	fp, [r4, #28]
    4fc4:	1afffff2 	bne	4f94 <generate_m.isra.4+0x410>
    4fc8:	e5949008 	ldr	r9, [r4, #8]
    4fcc:	e59d1028 	ldr	r1, [sp, #40]	; 0x28
    4fd0:	e1a00009 	mov	r0, r9
    4fd4:	ebfffffe 	bl	0 <strcasecmp>
    4fd8:	e3500000 	cmp	r0, #0
    4fdc:	1affff8b 	bne	4e10 <generate_m.isra.4+0x28c>
    4fe0:	e59dc2f8 	ldr	ip, [sp, #760]	; 0x2f8
    4fe4:	e3a0b014 	mov	fp, #20
    4fe8:	e35c0000 	cmp	ip, #0
    4fec:	0affff94 	beq	4e44 <generate_m.isra.4+0x2c0>
    4ff0:	e59dc2f8 	ldr	ip, [sp, #760]	; 0x2f8
    4ff4:	e15c000b 	cmp	ip, fp
    4ff8:	0affff95 	beq	4e54 <generate_m.isra.4+0x2d0>
    4ffc:	e59f39ac 	ldr	r3, [pc, #2476]	; 59b0 <generate_m.isra.4+0xe2c>
    5000:	e2855001 	add	r5, r5, #1
    5004:	e2866001 	add	r6, r6, #1
    5008:	e79a3003 	ldr	r3, [sl, r3]
    500c:	e5932080 	ldr	r2, [r3, #128]	; 0x80
    5010:	e1550002 	cmp	r5, r2
    5014:	baffffe5 	blt	4fb0 <generate_m.isra.4+0x42c>
    5018:	e1a0700a 	mov	r7, sl
    501c:	e59da01c 	ldr	sl, [sp, #28]
    5020:	e5933088 	ldr	r3, [r3, #136]	; 0x88
    5024:	e3530000 	cmp	r3, #0
    5028:	1a0000ed 	bne	53e4 <generate_m.isra.4+0x860>
    502c:	e59f497c 	ldr	r4, [pc, #2428]	; 59b0 <generate_m.isra.4+0xe2c>
    5030:	e7973004 	ldr	r3, [r7, r4]
    5034:	e5d33078 	ldrb	r3, [r3, #120]	; 0x78
    5038:	e353005f 	cmp	r3, #95	; 0x5f
    503c:	8a000213 	bhi	5890 <generate_m.isra.4+0xd0c>
    5040:	e59f3994 	ldr	r3, [pc, #2452]	; 59dc <generate_m.isra.4+0xe58>
    5044:	e7974003 	ldr	r4, [r7, r3]
    5048:	e3540000 	cmp	r4, #0
    504c:	0a000002 	beq	505c <generate_m.isra.4+0x4d8>
    5050:	e5d43000 	ldrb	r3, [r4]
    5054:	e3530000 	cmp	r3, #0
    5058:	1a0000b8 	bne	5340 <generate_m.isra.4+0x7bc>
    505c:	e59f394c 	ldr	r3, [pc, #2380]	; 59b0 <generate_m.isra.4+0xe2c>
    5060:	e7973003 	ldr	r3, [r7, r3]
    5064:	e5933050 	ldr	r3, [r3, #80]	; 0x50
    5068:	e3530000 	cmp	r3, #0
    506c:	0a00001b 	beq	50e0 <generate_m.isra.4+0x55c>
    5070:	e59f3968 	ldr	r3, [pc, #2408]	; 59e0 <generate_m.isra.4+0xe5c>
    5074:	e59d0020 	ldr	r0, [sp, #32]
    5078:	e19730d3 	ldrsb	r3, [r7, r3]
    507c:	e3530000 	cmp	r3, #0
    5080:	da000215 	ble	58dc <generate_m.isra.4+0xd58>
    5084:	ebfffffe 	bl	0 <strlen>
    5088:	e59dc024 	ldr	ip, [sp, #36]	; 0x24
    508c:	e59f2950 	ldr	r2, [pc, #2384]	; 59e4 <generate_m.isra.4+0xe60>
    5090:	e08f2002 	add	r2, pc, r2
    5094:	e060100c 	rsb	r1, r0, ip
    5098:	e59dc020 	ldr	ip, [sp, #32]
    509c:	e08c0000 	add	r0, ip, r0
    50a0:	ebfffffe 	bl	0 <switch_snprintf>
    50a4:	e59d0020 	ldr	r0, [sp, #32]
    50a8:	ebfffffe 	bl	0 <strlen>
    50ac:	e59dc020 	ldr	ip, [sp, #32]
    50b0:	e59f2930 	ldr	r2, [pc, #2352]	; 59e8 <generate_m.isra.4+0xe64>
    50b4:	e59d3034 	ldr	r3, [sp, #52]	; 0x34
    50b8:	e08f2002 	add	r2, pc, r2
    50bc:	e1a01000 	mov	r1, r0
    50c0:	e08c0000 	add	r0, ip, r0
    50c4:	e59dc024 	ldr	ip, [sp, #36]	; 0x24
    50c8:	e061100c 	rsb	r1, r1, ip
    50cc:	e59dc2f0 	ldr	ip, [sp, #752]	; 0x2f0
    50d0:	e58dc000 	str	ip, [sp]
    50d4:	e59dc2f4 	ldr	ip, [sp, #756]	; 0x2f4
    50d8:	e58dc004 	str	ip, [sp, #4]
    50dc:	ebfffffe 	bl	0 <switch_snprintf>
    50e0:	e59f3904 	ldr	r3, [pc, #2308]	; 59ec <generate_m.isra.4+0xe68>
    50e4:	e7d73003 	ldrb	r3, [r7, r3]
    50e8:	e3530000 	cmp	r3, #0
    50ec:	1a0000f7 	bne	54d0 <generate_m.isra.4+0x94c>
    50f0:	e59dc310 	ldr	ip, [sp, #784]	; 0x310
    50f4:	e35c0000 	cmp	ip, #0
    50f8:	1a0000c5 	bne	5414 <generate_m.isra.4+0x890>
    50fc:	e59dc308 	ldr	ip, [sp, #776]	; 0x308
    5100:	e35c0000 	cmp	ip, #0
    5104:	0a00009f 	beq	5388 <generate_m.isra.4+0x804>
    5108:	e59dc2fc 	ldr	ip, [sp, #764]	; 0x2fc
    510c:	e35c0000 	cmp	ip, #0
    5110:	0a00001c 	beq	5188 <generate_m.isra.4+0x604>
    5114:	e59d0020 	ldr	r0, [sp, #32]
    5118:	ebfffffe 	bl	0 <strlen>
    511c:	e59dc2fc 	ldr	ip, [sp, #764]	; 0x2fc
    5120:	e5dc3000 	ldrb	r3, [ip]
    5124:	e59dc020 	ldr	ip, [sp, #32]
    5128:	e3530000 	cmp	r3, #0
    512c:	e08c5000 	add	r5, ip, r0
    5130:	e59dc024 	ldr	ip, [sp, #36]	; 0x24
    5134:	e060400c 	rsb	r4, r0, ip
    5138:	e59fc8b0 	ldr	ip, [pc, #2224]	; 59f0 <generate_m.isra.4+0xe6c>
    513c:	e08fc00c 	add	ip, pc, ip
    5140:	0a000009 	beq	516c <generate_m.isra.4+0x5e8>
    5144:	e59d02fc 	ldr	r0, [sp, #764]	; 0x2fc
    5148:	ebfffffe 	bl	0 <strlen>
    514c:	e59dc2fc 	ldr	ip, [sp, #764]	; 0x2fc
    5150:	e08c0000 	add	r0, ip, r0
    5154:	e59fc898 	ldr	ip, [pc, #2200]	; 59f4 <generate_m.isra.4+0xe70>
    5158:	e5503001 	ldrb	r3, [r0, #-1]
    515c:	e08fc00c 	add	ip, pc, ip
    5160:	e353000a 	cmp	r3, #10
    5164:	059fc88c 	ldreq	ip, [pc, #2188]	; 59f8 <generate_m.isra.4+0xe74>
    5168:	008fc00c 	addeq	ip, pc, ip
    516c:	e59f2888 	ldr	r2, [pc, #2184]	; 59fc <generate_m.isra.4+0xe78>
    5170:	e1a00005 	mov	r0, r5
    5174:	e1a01004 	mov	r1, r4
    5178:	e08f2002 	add	r2, pc, r2
    517c:	e59d32fc 	ldr	r3, [sp, #764]	; 0x2fc
    5180:	e58dc000 	str	ip, [sp]
    5184:	ebfffffe 	bl	0 <switch_snprintf>
    5188:	e59dc2f8 	ldr	ip, [sp, #760]	; 0x2f8
    518c:	e35c0000 	cmp	ip, #0
    5190:	1a00005e 	bne	5310 <generate_m.isra.4+0x78c>
    5194:	e35a0000 	cmp	sl, #0
    5198:	1a00005b 	bne	530c <generate_m.isra.4+0x788>
    519c:	e59d002c 	ldr	r0, [sp, #44]	; 0x2c
    51a0:	e3a01000 	mov	r1, #0
    51a4:	e3a02001 	mov	r2, #1
    51a8:	ebfffffe 	bl	2658 <switch_core_media_get_zrtp_hash>
    51ac:	e2504000 	subs	r4, r0, #0
    51b0:	0a00001a 	beq	5220 <generate_m.isra.4+0x69c>
    51b4:	e59dc02c 	ldr	ip, [sp, #44]	; 0x2c
    51b8:	e59f2840 	ldr	r2, [pc, #2112]	; 5a00 <generate_m.isra.4+0xe7c>
    51bc:	e58dc000 	str	ip, [sp]
    51c0:	e3a0c007 	mov	ip, #7
    51c4:	e58dc004 	str	ip, [sp, #4]
    51c8:	e59f1834 	ldr	r1, [pc, #2100]	; 5a04 <generate_m.isra.4+0xe80>
    51cc:	e59fc834 	ldr	ip, [pc, #2100]	; 5a08 <generate_m.isra.4+0xe84>
    51d0:	e08f2002 	add	r2, pc, r2
    51d4:	e08fc00c 	add	ip, pc, ip
    51d8:	e08f1001 	add	r1, pc, r1
    51dc:	e2822ffd 	add	r2, r2, #1012	; 0x3f4
    51e0:	e59f3824 	ldr	r3, [pc, #2084]	; 5a0c <generate_m.isra.4+0xe88>
    51e4:	e3a00003 	mov	r0, #3
    51e8:	e58dc008 	str	ip, [sp, #8]
    51ec:	e58d400c 	str	r4, [sp, #12]
    51f0:	ebfffffe 	bl	0 <switch_log_printf>
    51f4:	e59d0020 	ldr	r0, [sp, #32]
    51f8:	ebfffffe 	bl	0 <strlen>
    51fc:	e59dc020 	ldr	ip, [sp, #32]
    5200:	e59f2808 	ldr	r2, [pc, #2056]	; 5a10 <generate_m.isra.4+0xe8c>
    5204:	e1a03004 	mov	r3, r4
    5208:	e08f2002 	add	r2, pc, r2
    520c:	e1a01000 	mov	r1, r0
    5210:	e08c0000 	add	r0, ip, r0
    5214:	e59dc024 	ldr	ip, [sp, #36]	; 0x24
    5218:	e061100c 	rsb	r1, r1, ip
    521c:	ebfffffe 	bl	0 <switch_snprintf>
    5220:	e59dc300 	ldr	ip, [sp, #768]	; 0x300
    5224:	e35c0000 	cmp	ip, #0
    5228:	0a00000d 	beq	5264 <generate_m.isra.4+0x6e0>
    522c:	e5dc3000 	ldrb	r3, [ip]
    5230:	e3530000 	cmp	r3, #0
    5234:	0a00000a 	beq	5264 <generate_m.isra.4+0x6e0>
    5238:	e59d0020 	ldr	r0, [sp, #32]
    523c:	ebfffffe 	bl	0 <strlen>
    5240:	e59dc020 	ldr	ip, [sp, #32]
    5244:	e59f27c8 	ldr	r2, [pc, #1992]	; 5a14 <generate_m.isra.4+0xe90>
    5248:	e59d3300 	ldr	r3, [sp, #768]	; 0x300
    524c:	e08f2002 	add	r2, pc, r2
    5250:	e1a01000 	mov	r1, r0
    5254:	e08c0000 	add	r0, ip, r0
    5258:	e59dc024 	ldr	ip, [sp, #36]	; 0x24
    525c:	e061100c 	rsb	r1, r1, ip
    5260:	ebfffffe 	bl	0 <switch_snprintf>
    5264:	e28ddfb3 	add	sp, sp, #716	; 0x2cc
    5268:	e8bd8ff0 	pop	{r4, r5, r6, r7, r8, r9, sl, fp, pc}
    526c:	e59d030c 	ldr	r0, [sp, #780]	; 0x30c
    5270:	e5941008 	ldr	r1, [r4, #8]
    5274:	e3e02000 	mvn	r2, #0
    5278:	ebfffffe 	bl	0 <switch_event_get_header_idx>
    527c:	e5d63000 	ldrb	r3, [r6]
    5280:	e3500000 	cmp	r0, #0
    5284:	1affff15 	bne	4ee0 <generate_m.isra.4+0x35c>
    5288:	e1a00007 	mov	r0, r7
    528c:	eaffff13 	b	4ee0 <generate_m.isra.4+0x35c>
    5290:	ebfffffe 	bl	0 <strlen>
    5294:	e59d2024 	ldr	r2, [sp, #36]	; 0x24
    5298:	e59de020 	ldr	lr, [sp, #32]
    529c:	e594c008 	ldr	ip, [r4, #8]
    52a0:	e5d63000 	ldrb	r3, [r6]
    52a4:	e58dc000 	str	ip, [sp]
    52a8:	e58db004 	str	fp, [sp, #4]
    52ac:	e1a01000 	mov	r1, r0
    52b0:	e0611002 	rsb	r1, r1, r2
    52b4:	e59f275c 	ldr	r2, [pc, #1884]	; 5a18 <generate_m.isra.4+0xe94>
    52b8:	e08e0000 	add	r0, lr, r0
    52bc:	e08f2002 	add	r2, pc, r2
    52c0:	ebfffffe 	bl	0 <switch_snprintf>
    52c4:	eaffff25 	b	4f60 <generate_m.isra.4+0x3dc>
    52c8:	e59d3304 	ldr	r3, [sp, #772]	; 0x304
    52cc:	e59dc308 	ldr	ip, [sp, #776]	; 0x308
    52d0:	e35c0000 	cmp	ip, #0
    52d4:	13530000 	cmpne	r3, #0
    52d8:	0afffeac 	beq	4d90 <generate_m.isra.4+0x20c>
    52dc:	e59d0020 	ldr	r0, [sp, #32]
    52e0:	ebfffffe 	bl	0 <strlen>
    52e4:	e59dc020 	ldr	ip, [sp, #32]
    52e8:	e59f272c 	ldr	r2, [pc, #1836]	; 5a1c <generate_m.isra.4+0xe98>
    52ec:	e59d3308 	ldr	r3, [sp, #776]	; 0x308
    52f0:	e08f2002 	add	r2, pc, r2
    52f4:	e1a01000 	mov	r1, r0
    52f8:	e08c0000 	add	r0, ip, r0
    52fc:	e59dc024 	ldr	ip, [sp, #36]	; 0x24
    5300:	e061100c 	rsb	r1, r1, ip
    5304:	ebfffffe 	bl	0 <switch_snprintf>
    5308:	eafffea0 	b	4d90 <generate_m.isra.4+0x20c>
    530c:	e58da2f8 	str	sl, [sp, #760]	; 0x2f8
    5310:	e59d0020 	ldr	r0, [sp, #32]
    5314:	ebfffffe 	bl	0 <strlen>
    5318:	e59dc020 	ldr	ip, [sp, #32]
    531c:	e59f26fc 	ldr	r2, [pc, #1788]	; 5a20 <generate_m.isra.4+0xe9c>
    5320:	e59d32f8 	ldr	r3, [sp, #760]	; 0x2f8
    5324:	e08f2002 	add	r2, pc, r2
    5328:	e1a01000 	mov	r1, r0
    532c:	e08c0000 	add	r0, ip, r0
    5330:	e59dc024 	ldr	ip, [sp, #36]	; 0x24
    5334:	e061100c 	rsb	r1, r1, ip
    5338:	ebfffffe 	bl	0 <switch_snprintf>
    533c:	eaffff96 	b	519c <generate_m.isra.4+0x618>
    5340:	e59dc310 	ldr	ip, [sp, #784]	; 0x310
    5344:	e35c0000 	cmp	ip, #0
    5348:	0affff43 	beq	505c <generate_m.isra.4+0x4d8>
    534c:	e59d0020 	ldr	r0, [sp, #32]
    5350:	ebfffffe 	bl	0 <strlen>
    5354:	e59d2024 	ldr	r2, [sp, #36]	; 0x24
    5358:	e59de020 	ldr	lr, [sp, #32]
    535c:	e287cdab 	add	ip, r7, #10944	; 0x2ac0
    5360:	e28cc028 	add	ip, ip, #40	; 0x28
    5364:	e1a03004 	mov	r3, r4
    5368:	e58dc000 	str	ip, [sp]
    536c:	e1a01000 	mov	r1, r0
    5370:	e0611002 	rsb	r1, r1, r2
    5374:	e59f26a8 	ldr	r2, [pc, #1704]	; 5a24 <generate_m.isra.4+0xea0>
    5378:	e08e0000 	add	r0, lr, r0
    537c:	e08f2002 	add	r2, pc, r2
    5380:	ebfffffe 	bl	0 <switch_snprintf>
    5384:	eaffff34 	b	505c <generate_m.isra.4+0x4d8>
    5388:	e1a00007 	mov	r0, r7
    538c:	e3a01009 	mov	r1, #9
    5390:	ebfffffe 	bl	4b38 <switch_media_handle_test_media_flag>
    5394:	e3500000 	cmp	r0, #0
    5398:	0affff5a 	beq	5108 <generate_m.isra.4+0x584>
    539c:	e59d0020 	ldr	r0, [sp, #32]
    53a0:	ebfffffe 	bl	0 <strlen>
    53a4:	e59dc020 	ldr	ip, [sp, #32]
    53a8:	e59f2678 	ldr	r2, [pc, #1656]	; 5a28 <generate_m.isra.4+0xea4>
    53ac:	e08f2002 	add	r2, pc, r2
    53b0:	e1a01000 	mov	r1, r0
    53b4:	e08c0000 	add	r0, ip, r0
    53b8:	e59dc024 	ldr	ip, [sp, #36]	; 0x24
    53bc:	e061100c 	rsb	r1, r1, ip
    53c0:	ebfffffe 	bl	0 <switch_snprintf>
    53c4:	eaffff4f 	b	5108 <generate_m.isra.4+0x584>
    53c8:	e59dc02c 	ldr	ip, [sp, #44]	; 0x2c
    53cc:	e59c0018 	ldr	r0, [ip, #24]
    53d0:	ebfffffe 	bl	0 <switch_channel_direction>
    53d4:	e3500001 	cmp	r0, #1
    53d8:	01a01000 	moveq	r1, r0
    53dc:	1afffe03 	bne	4bf0 <generate_m.isra.4+0x6c>
    53e0:	eafffe05 	b	4bfc <generate_m.isra.4+0x78>
    53e4:	e1a00007 	mov	r0, r7
    53e8:	e3a01008 	mov	r1, #8
    53ec:	ebfffffe 	bl	4b38 <switch_media_handle_test_media_flag>
    53f0:	e3500000 	cmp	r0, #0
    53f4:	1affff0c 	bne	502c <generate_m.isra.4+0x4a8>
    53f8:	e59dc02c 	ldr	ip, [sp, #44]	; 0x2c
    53fc:	e3a0105d 	mov	r1, #93	; 0x5d
    5400:	e59c0018 	ldr	r0, [ip, #24]
    5404:	ebfffffe 	bl	0 <switch_channel_test_flag>
    5408:	e3500000 	cmp	r0, #0
    540c:	0affff0b 	beq	5040 <generate_m.isra.4+0x4bc>
    5410:	eaffff05 	b	502c <generate_m.isra.4+0x4a8>
    5414:	e59dc02c 	ldr	ip, [sp, #44]	; 0x2c
    5418:	e3a0106d 	mov	r1, #109	; 0x6d
    541c:	e59c0018 	ldr	r0, [ip, #24]
    5420:	ebfffffe 	bl	0 <switch_channel_test_flag>
    5424:	e3500000 	cmp	r0, #0
    5428:	1affff33 	bne	50fc <generate_m.isra.4+0x578>
    542c:	e59f35f8 	ldr	r3, [pc, #1528]	; 5a2c <generate_m.isra.4+0xea8>
    5430:	e7973003 	ldr	r3, [r7, r3]
    5434:	e3530009 	cmp	r3, #9
    5438:	0affff2f 	beq	50fc <generate_m.isra.4+0x578>
    543c:	e59f65ec 	ldr	r6, [pc, #1516]	; 5a30 <generate_m.isra.4+0xeac>
    5440:	e59f85ec 	ldr	r8, [pc, #1516]	; 5a34 <generate_m.isra.4+0xeb0>
    5444:	e2875c5d 	add	r5, r7, #23808	; 0x5d00
    5448:	e08f6006 	add	r6, pc, r6
    544c:	e08f8008 	add	r8, pc, r8
    5450:	e2855008 	add	r5, r5, #8
    5454:	e59d9020 	ldr	r9, [sp, #32]
    5458:	e59db024 	ldr	fp, [sp, #36]	; 0x24
    545c:	ea000004 	b	5474 <generate_m.isra.4+0x8f0>
    5460:	e3520009 	cmp	r2, #9
    5464:	0a000008 	beq	548c <generate_m.isra.4+0x908>
    5468:	e5b53004 	ldr	r3, [r5, #4]!
    546c:	e3530009 	cmp	r3, #9
    5470:	0affff21 	beq	50fc <generate_m.isra.4+0x578>
    5474:	e0833083 	add	r3, r3, r3, lsl #1
    5478:	e59725f0 	ldr	r2, [r7, #1520]	; 0x5f0
    547c:	e0863103 	add	r3, r6, r3, lsl #2
    5480:	e5933004 	ldr	r3, [r3, #4]
    5484:	e1530002 	cmp	r3, r2
    5488:	1afffff4 	bne	5460 <generate_m.isra.4+0x8dc>
    548c:	e0833183 	add	r3, r3, r3, lsl #3
    5490:	e0873203 	add	r3, r7, r3, lsl #4
    5494:	e59340d8 	ldr	r4, [r3, #216]	; 0xd8
    5498:	e3540000 	cmp	r4, #0
    549c:	0afffff1 	beq	5468 <generate_m.isra.4+0x8e4>
    54a0:	e5d43000 	ldrb	r3, [r4]
    54a4:	e3530000 	cmp	r3, #0
    54a8:	0affffee 	beq	5468 <generate_m.isra.4+0x8e4>
    54ac:	e1a00009 	mov	r0, r9
    54b0:	ebfffffe 	bl	0 <strlen>
    54b4:	e1a02008 	mov	r2, r8
    54b8:	e1a03004 	mov	r3, r4
    54bc:	e1a01000 	mov	r1, r0
    54c0:	e061100b 	rsb	r1, r1, fp
    54c4:	e0890000 	add	r0, r9, r0
    54c8:	ebfffffe 	bl	0 <switch_snprintf>
    54cc:	eaffffe5 	b	5468 <generate_m.isra.4+0x8e4>
    54d0:	e59f4560 	ldr	r4, [pc, #1376]	; 5a38 <generate_m.isra.4+0xeb4>
    54d4:	e28dec02 	add	lr, sp, #512	; 0x200
    54d8:	e3a05000 	mov	r5, #0
    54dc:	e08f4004 	add	r4, pc, r4
    54e0:	e1ce54b4 	strh	r5, [lr, #68]	; 0x44
    54e4:	e1ce5cb4 	strh	r5, [lr, #196]	; 0xc4
    54e8:	e1a02004 	mov	r2, r4
    54ec:	e28d0f8f 	add	r0, sp, #572	; 0x23c
    54f0:	e3a0100a 	mov	r1, #10
    54f4:	e58d523c 	str	r5, [sp, #572]	; 0x23c
    54f8:	e58d5240 	str	r5, [sp, #576]	; 0x240
    54fc:	e58d52bc 	str	r5, [sp, #700]	; 0x2bc
    5500:	e58d52c0 	str	r5, [sp, #704]	; 0x2c0
    5504:	e5cd5246 	strb	r5, [sp, #582]	; 0x246
    5508:	e5cd52c6 	strb	r5, [sp, #710]	; 0x2c6
    550c:	ebfffffe 	bl	0 <switch_stun_random_string>
    5510:	e1a02004 	mov	r2, r4
    5514:	e28d0faf 	add	r0, sp, #700	; 0x2bc
    5518:	e3a0100a 	mov	r1, #10
    551c:	ebfffffe 	bl	0 <switch_stun_random_string>
    5520:	e1a01005 	mov	r1, r5
    5524:	e1a02005 	mov	r2, r5
    5528:	e1a03005 	mov	r3, r5
    552c:	e59d002c 	ldr	r0, [sp, #44]	; 0x2c
    5530:	ebffecb4 	bl	808 <gen_ice>
    5534:	e59d0020 	ldr	r0, [sp, #32]
    5538:	ebfffffe 	bl	0 <strlen>
    553c:	e3a02c5d 	mov	r2, #23808	; 0x5d00
    5540:	e59de020 	ldr	lr, [sp, #32]
    5544:	e797c002 	ldr	ip, [r7, r2]
    5548:	e59d2024 	ldr	r2, [sp, #36]	; 0x24
    554c:	e5973760 	ldr	r3, [r7, #1888]	; 0x760
    5550:	e58dc000 	str	ip, [sp]
    5554:	e59f44e0 	ldr	r4, [pc, #1248]	; 5a3c <generate_m.isra.4+0xeb8>
    5558:	e0601002 	rsb	r1, r0, r2
    555c:	e59f24dc 	ldr	r2, [pc, #1244]	; 5a40 <generate_m.isra.4+0xebc>
    5560:	e08e0000 	add	r0, lr, r0
    5564:	e08f2002 	add	r2, pc, r2
    5568:	ebfffffe 	bl	0 <switch_snprintf>
    556c:	e59d0020 	ldr	r0, [sp, #32]
    5570:	ebfffffe 	bl	0 <strlen>
    5574:	e59d2024 	ldr	r2, [sp, #36]	; 0x24
    5578:	e59de020 	ldr	lr, [sp, #32]
    557c:	e797c004 	ldr	ip, [r7, r4]
    5580:	e5973760 	ldr	r3, [r7, #1888]	; 0x760
    5584:	e58dc000 	str	ip, [sp]
    5588:	e0601002 	rsb	r1, r0, r2
    558c:	e59f24b0 	ldr	r2, [pc, #1200]	; 5a44 <generate_m.isra.4+0xec0>
    5590:	e08e0000 	add	r0, lr, r0
    5594:	e08f2002 	add	r2, pc, r2
    5598:	ebfffffe 	bl	0 <switch_snprintf>
    559c:	e59d0020 	ldr	r0, [sp, #32]
    55a0:	ebfffffe 	bl	0 <strlen>
    55a4:	e59d2024 	ldr	r2, [sp, #36]	; 0x24
    55a8:	e59de020 	ldr	lr, [sp, #32]
    55ac:	e797c004 	ldr	ip, [r7, r4]
    55b0:	e5973760 	ldr	r3, [r7, #1888]	; 0x760
    55b4:	e58dc000 	str	ip, [sp]
    55b8:	e0601002 	rsb	r1, r0, r2
    55bc:	e59f2484 	ldr	r2, [pc, #1156]	; 5a48 <generate_m.isra.4+0xec4>
    55c0:	e08e0000 	add	r0, lr, r0
    55c4:	e08f2002 	add	r2, pc, r2
    55c8:	ebfffffe 	bl	0 <switch_snprintf>
    55cc:	e59d0020 	ldr	r0, [sp, #32]
    55d0:	ebfffffe 	bl	0 <strlen>
    55d4:	e59d2024 	ldr	r2, [sp, #36]	; 0x24
    55d8:	e59de020 	ldr	lr, [sp, #32]
    55dc:	e797c004 	ldr	ip, [r7, r4]
    55e0:	e5973760 	ldr	r3, [r7, #1888]	; 0x760
    55e4:	e58dc000 	str	ip, [sp]
    55e8:	e2874d65 	add	r4, r7, #6464	; 0x1940
    55ec:	e2844010 	add	r4, r4, #16
    55f0:	e0601002 	rsb	r1, r0, r2
